(iid3_node
node
p0
(dp1
S'left_node'
p2
(iid3_node
node
p3
(dp4
g2
(iid3_node
node
p5
(dp6
g2
(iid3_node
node
p7
(dp8
g2
(iid3_node
node
p9
(dp10
g2
(iid3_node
node
p11
(dp12
g2
(iid3_node
node
p13
(dp14
S'class_prediction'
p15
I0
sS'is_pure'
p16
I01
sbsS'right_data'
p17
(lp18
(lp19
S'0'
p20
ag20
ag20
ag20
ag20
aS'1'
p21
ag20
ag21
ag20
ag20
ag21
ag20
ag21
ag21
ag21
ag21
ag20
ag21
ag20
ag20
ag21
aa(lp22
g20
ag20
ag20
ag20
ag20
ag21
ag21
ag21
ag20
ag21
ag21
ag21
ag21
ag20
ag21
ag20
ag20
ag21
ag20
ag21
ag21
aa(lp23
g20
ag20
ag20
ag20
ag20
ag21
ag20
ag20
ag20
ag20
ag21
ag20
ag20
ag20
ag21
ag21
ag20
ag21
ag20
ag20
ag21
aa(lp24
g20
ag20
ag20
ag20
ag20
ag21
ag20
ag21
ag20
ag21
ag21
ag21
ag21
ag21
ag20
ag20
ag21
ag20
ag21
ag21
ag20
aa(lp25
g20
ag20
ag20
ag20
ag20
ag21
ag20
ag21
ag21
ag21
ag21
ag20
ag21
ag20
ag21
ag21
ag20
ag21
ag21
ag21
ag21
aa(lp26
g20
ag20
ag20
ag20
ag20
ag21
ag21
ag20
ag21
ag20
ag20
ag21
ag21
ag20
ag20
ag20
ag20
ag21
ag20
ag20
ag21
aa(lp27
g20
ag20
ag20
ag20
ag20
ag21
ag21
ag21
ag20
ag21
ag20
ag20
ag21
ag20
ag20
ag20
ag20
ag21
ag21
ag20
ag21
aa(lp28
g20
ag20
ag20
ag20
ag20
ag21
ag20
ag20
ag21
ag21
ag21
ag20
ag20
ag20
ag21
ag20
ag20
ag21
ag20
ag20
ag21
aa(lp29
g20
ag20
ag20
ag20
ag20
ag21
ag20
ag21
ag20
ag20
ag21
ag20
ag21
ag21
ag20
ag20
ag20
ag21
ag21
ag20
ag20
aa(lp30
g20
ag20
ag20
ag20
ag20
ag21
ag21
ag21
ag20
ag20
ag20
ag20
ag20
ag21
ag21
ag21
ag20
ag21
ag20
ag20
ag21
aasS'feature_label'
p31
S'XG'
p32
sS'right_node'
p33
(iid3_node
node
p34
(dp35
g2
(iid3_node
node
p36
(dp37
g2
(iid3_node
node
p38
(dp39
g15
I1
sg16
I01
sbsg17
(lp40
g19
ag24
ag25
ag29
asg31
S'XI'
p41
sg33
(iid3_node
node
p42
(dp43
g2
(iid3_node
node
p44
(dp45
g2
(iid3_node
node
p46
(dp47
g2
(iid3_node
node
p48
(dp49
g15
I0
sg16
I01
sbsg17
(lp50
g19
asg31
S'XP'
p51
sg33
(iid3_node
node
p52
(dp53
g15
I1
sg16
I01
sbsS'left_data'
p54
(lp55
g29
asbsg17
(lp56
g24
asg31
S'XK'
p57
sg33
(iid3_node
node
p58
(dp59
g15
I0
sg16
I01
sbsg54
(lp60
g19
ag29
asbsg17
(lp61
g25
asg31
S'XJ'
p62
sg33
(iid3_node
node
p63
(dp64
g15
I1
sg16
I01
sbsg54
(lp65
g19
ag24
ag29
asbsg54
(lp66
g23
ag28
asbsg17
(lp67
g22
ag26
ag27
ag30
asg31
S'XH'
p68
sg33
(iid3_node
node
p69
(dp70
g15
I1
sg16
I01
sbsg54
(lp71
g19
ag23
ag24
ag25
ag28
ag29
asbsg54
(lp72
(lp73
g20
ag20
ag20
ag20
ag20
ag20
ag21
ag21
ag21
ag21
ag21
ag20
ag21
ag21
ag20
ag20
ag21
ag21
ag21
ag21
ag20
aa(lp74
g20
ag20
ag20
ag20
ag20
ag20
ag20
ag20
ag20
ag20
ag21
ag21
ag20
ag20
ag21
ag20
ag20
ag21
ag20
ag21
ag20
aa(lp75
g20
ag20
ag20
ag20
ag20
ag20
ag20
ag20
ag21
ag20
ag21
ag21
ag21
ag21
ag20
ag20
ag20
ag21
ag21
ag20
ag20
aa(lp76
g20
ag20
ag20
ag20
ag20
ag20
ag21
ag21
ag21
ag20
ag20
ag21
ag20
ag21
ag20
ag20
ag20
ag21
ag20
ag21
ag20
aa(lp77
g20
ag20
ag20
ag20
ag20
ag20
ag20
ag21
ag21
ag21
ag21
ag21
ag20
ag20
ag20
ag20
ag20
ag21
ag21
ag20
ag20
aa(lp78
g20
ag20
ag20
ag20
ag20
ag20
ag21
ag21
ag21
ag20
ag20
ag21
ag20
ag20
ag21
ag21
ag21
ag21
ag21
ag20
ag20
aa(lp79
g20
ag20
ag20
ag20
ag20
ag20
ag20
ag20
ag21
ag20
ag21
ag20
ag20
ag21
ag20
ag20
ag20
ag20
ag21
ag20
ag20
aasbsg17
(lp80
(lp81
g20
ag20
ag20
ag20
ag21
ag21
ag21
ag21
ag21
ag20
ag21
ag21
ag21
ag21
ag21
ag20
ag20
ag20
ag21
ag20
ag21
aa(lp82
g20
ag20
ag20
ag20
ag21
ag21
ag20
ag21
ag20
ag21
ag20
ag21
ag21
ag21
ag21
ag20
ag20
ag20
ag20
ag20
ag21
aa(lp83
g20
ag20
ag20
ag20
ag21
ag20
ag21
ag21
ag21
ag20
ag20
ag21
ag21
ag20
ag21
ag20
ag21
ag20
ag20
ag20
ag21
aa(lp84
g20
ag20
ag20
ag20
ag21
ag20
ag20
ag21
ag21
ag20
ag21
ag20
ag20
ag21
ag21
ag21
ag20
ag20
ag21
ag20
ag21
aa(lp85
g20
ag20
ag20
ag20
ag21
ag21
ag20
ag20
ag20
ag21
ag20
ag20
ag21
ag21
ag21
ag21
ag20
ag20
ag20
ag20
ag20
aa(lp86
g20
ag20
ag20
ag20
ag21
ag20
ag21
ag20
ag21
ag21
ag20
ag21
ag20
ag20
ag21
ag21
ag20
ag20
ag21
ag21
ag21
aa(lp87
g20
ag20
ag20
ag20
ag21
ag20
ag21
ag21
ag21
ag21
ag20
ag21
ag20
ag21
ag20
ag21
ag20
ag20
ag21
ag20
ag20
aa(lp88
g20
ag20
ag20
ag20
ag21
ag20
ag20
ag21
ag21
ag20
ag20
ag21
ag20
ag21
ag21
ag20
ag21
ag20
ag21
ag20
ag20
aa(lp89
g20
ag20
ag20
ag20
ag21
ag21
ag20
ag21
ag21
ag21
ag21
ag20
ag21
ag21
ag21
ag20
ag21
ag21
ag21
ag20
ag20
aa(lp90
g20
ag20
ag20
ag20
ag21
ag20
ag21
ag20
ag21
ag21
ag20
ag20
ag20
ag21
ag21
ag21
ag20
ag20
ag20
ag21
ag21
aa(lp91
g20
ag20
ag20
ag20
ag21
ag20
ag20
ag20
ag20
ag20
ag21
ag20
ag20
ag21
ag21
ag21
ag20
ag20
ag20
ag21
ag21
aa(lp92
g20
ag20
ag20
ag20
ag21
ag21
ag21
ag21
ag20
ag20
ag20
ag20
ag21
ag20
ag20
ag20
ag21
ag20
ag20
ag20
ag20
aa(lp93
g20
ag20
ag20
ag20
ag21
ag21
ag20
ag20
ag21
ag20
ag21
ag21
ag21
ag20
ag20
ag21
ag20
ag20
ag21
ag20
ag21
aa(lp94
g20
ag20
ag20
ag20
ag21
ag20
ag21
ag21
ag21
ag20
ag20
ag21
ag21
ag20
ag21
ag20
ag20
ag21
ag21
ag20
ag21
aa(lp95
g20
ag20
ag20
ag20
ag21
ag20
ag21
ag20
ag21
ag21
ag20
ag21
ag21
ag21
ag21
ag21
ag20
ag20
ag20
ag21
ag20
aa(lp96
g20
ag20
ag20
ag20
ag21
ag21
ag21
ag20
ag21
ag20
ag20
ag20
ag21
ag21
ag21
ag20
ag20
ag21
ag21
ag20
ag20
aa(lp97
g20
ag20
ag20
ag20
ag21
ag21
ag20
ag20
ag21
ag21
ag20
ag21
ag20
ag20
ag21
ag20
ag21
ag21
ag21
ag21
ag20
aa(lp98
g20
ag20
ag20
ag20
ag21
ag20
ag21
ag20
ag21
ag21
ag20
ag21
ag21
ag20
ag21
ag20
ag21
ag21
ag20
ag21
ag20
aa(lp99
g20
ag20
ag20
ag20
ag21
ag21
ag20
ag20
ag20
ag20
ag20
ag21
ag20
ag20
ag20
ag21
ag20
ag20
ag21
ag20
ag21
aa(lp100
g20
ag20
ag20
ag20
ag21
ag21
ag20
ag21
ag20
ag20
ag20
ag21
ag21
ag20
ag21
ag21
ag20
ag21
ag20
ag20
ag21
aasg31
S'XF'
p101
sg33
(iid3_node
node
p102
(dp103
g2
(iid3_node
node
p104
(dp105
g2
(iid3_node
node
p106
(dp107
g2
(iid3_node
node
p108
(dp109
g15
I1
sg16
I01
sbsg17
(lp110
g84
ag88
asg31
g41
sg33
(iid3_node
node
p111
(dp112
g2
(iid3_node
node
p113
(dp114
g15
I0
sg16
I01
sbsg17
(lp115
g84
asg31
S'XL'
p116
sg33
(iid3_node
node
p117
(dp118
g15
I1
sg16
I01
sbsg54
(lp119
g88
asbsg54
(lp120
g91
asbsg17
(lp121
g83
ag86
ag87
ag90
ag94
ag95
ag98
asg31
g68
sg33
(iid3_node
node
p122
(dp123
g2
(iid3_node
node
p124
(dp125
g2
(iid3_node
node
p126
(dp127
g15
I1
sg16
I01
sbsg17
(lp128
g86
ag95
ag98
asg31
S'XM'
p129
sg33
(iid3_node
node
p130
(dp131
g2
(iid3_node
node
p132
(dp133
g15
I1
sg16
I01
sbsg17
(lp134
g95
ag98
asg31
S'XN'
p135
sg33
(iid3_node
node
p136
(dp137
g15
I0
sg16
I01
sbsg54
(lp138
g86
asbsg54
(lp139
g90
asbsg17
(lp140
g83
ag87
ag94
asg31
g41
sg33
(iid3_node
node
p141
(dp142
g2
(iid3_node
node
p143
(dp144
g15
I1
sg16
I01
sbsg17
(lp145
g87
asg31
g57
sg33
(iid3_node
node
p146
(dp147
g15
I0
sg16
I01
sbsg54
(lp148
g83
ag94
asbsg54
(lp149
g86
ag90
ag95
ag98
asbsg54
(lp150
g84
ag88
ag91
asbsg17
(lp151
g81
ag82
ag85
ag89
ag92
ag93
ag96
ag97
ag99
ag100
asg31
g32
sg33
(iid3_node
node
p152
(dp153
g2
(iid3_node
node
p154
(dp155
g2
(iid3_node
node
p156
(dp157
g2
(iid3_node
node
p158
(dp159
g2
(iid3_node
node
p160
(dp161
g15
I1
sg16
I01
sbsg17
(lp162
g85
asg31
g57
sg33
(iid3_node
node
p163
(dp164
g15
I0
sg16
I01
sbsg54
(lp165
g99
asbsg17
(lp166
g93
ag97
asg31
g62
sg33
(iid3_node
node
p167
(dp168
g2
(iid3_node
node
p169
(dp170
g15
I1
sg16
I01
sbsg17
(lp171
g97
asg31
g57
sg33
(iid3_node
node
p172
(dp173
g15
I0
sg16
I01
sbsg54
(lp174
g93
asbsg54
(lp175
g85
ag99
asbsg17
(lp176
g82
ag89
ag100
asg31
g41
sg33
(iid3_node
node
p177
(dp178
g2
(iid3_node
node
p179
(dp180
g15
I1
sg16
I01
sbsg17
(lp181
g89
asg31
g62
sg33
(iid3_node
node
p182
(dp183
g15
I0
sg16
I01
sbsg54
(lp184
g82
ag100
asbsg54
(lp185
g85
ag93
ag97
ag99
asbsg17
(lp186
g81
ag92
ag96
asg31
g68
sg33
(iid3_node
node
p187
(dp188
g2
(iid3_node
node
p189
(dp190
g15
I0
sg16
I01
sbsg17
(lp191
g81
ag92
asg31
g41
sg33
(iid3_node
node
p192
(dp193
g2
(iid3_node
node
p194
(dp195
g15
I0
sg16
I01
sbsg17
(lp196
g81
asg31
g62
sg33
(iid3_node
node
p197
(dp198
g15
I1
sg16
I01
sbsg54
(lp199
g92
asbsg54
(lp200
g96
asbsg54
(lp201
g82
ag85
ag89
ag93
ag97
ag99
ag100
asbsg54
(lp202
g83
ag84
ag86
ag87
ag88
ag90
ag91
ag94
ag95
ag98
asbsg54
(lp203
g73
ag19
ag22
ag74
ag23
ag75
ag76
ag77
ag24
ag25
ag26
ag27
ag78
ag28
ag29
ag30
ag79
asbsg17
(lp204
(lp205
g20
ag20
ag20
ag21
ag21
ag21
ag21
ag20
ag21
ag21
ag21
ag21
ag21
ag20
ag21
ag20
ag21
ag20
ag20
ag21
ag20
aa(lp206
g20
ag20
ag20
ag21
ag21
ag21
ag21
ag20
ag20
ag20
ag21
ag20
ag20
ag21
ag20
ag20
ag20
ag21
ag20
ag21
ag20
aa(lp207
g20
ag20
ag20
ag21
ag21
ag20
ag21
ag21
ag21
ag21
ag20
ag20
ag21
ag21
ag20
ag20
ag20
ag20
ag21
ag21
ag21
aa(lp208
g20
ag20
ag20
ag21
ag20
ag21
ag20
ag20
ag20
ag21
ag21
ag20
ag21
ag20
ag21
ag21
ag20
ag20
ag20
ag20
ag20
aa(lp209
g20
ag20
ag20
ag21
ag21
ag20
ag20
ag21
ag21
ag20
ag21
ag21
ag21
ag20
ag20
ag20
ag21
ag21
ag21
ag21
ag21
aa(lp210
g20
ag20
ag20
ag21
ag20
ag21
ag20
ag20
ag21
ag21
ag21
ag21
ag21
ag20
ag21
ag20
ag20
ag21
ag21
ag20
ag21
aa(lp211
g20
ag20
ag20
ag21
ag21
ag20
ag21
ag21
ag21
ag21
ag20
ag21
ag20
ag21
ag20
ag20
ag20
ag20
ag20
ag21
ag21
aa(lp212
g20
ag20
ag20
ag21
ag20
ag21
ag21
ag21
ag20
ag21
ag20
ag20
ag20
ag21
ag20
ag20
ag20
ag21
ag21
ag20
ag21
aa(lp213
g20
ag20
ag20
ag21
ag21
ag20
ag21
ag21
ag21
ag21
ag20
ag21
ag20
ag20
ag21
ag20
ag20
ag21
ag20
ag21
ag21
aa(lp214
g20
ag20
ag20
ag21
ag21
ag20
ag21
ag20
ag21
ag21
ag20
ag21
ag20
ag20
ag20
ag21
ag21
ag20
ag20
ag20
ag21
aa(lp215
g20
ag20
ag20
ag21
ag21
ag20
ag21
ag21
ag20
ag20
ag20
ag21
ag20
ag20
ag21
ag20
ag20
ag20
ag20
ag21
ag21
aa(lp216
g20
ag20
ag20
ag21
ag21
ag21
ag20
ag21
ag20
ag21
ag21
ag20
ag21
ag21
ag20
ag21
ag20
ag20
ag20
ag20
ag21
aa(lp217
g20
ag20
ag20
ag21
ag20
ag20
ag20
ag21
ag21
ag20
ag20
ag21
ag21
ag21
ag21
ag21
ag20
ag20
ag20
ag20
ag20
aa(lp218
g20
ag20
ag20
ag21
ag20
ag20
ag20
ag21
ag20
ag20
ag21
ag21
ag21
ag21
ag21
ag21
ag20
ag21
ag21
ag21
ag20
aa(lp219
g20
ag20
ag20
ag21
ag20
ag21
ag21
ag21
ag21
ag21
ag21
ag21
ag21
ag20
ag21
ag20
ag20
ag21
ag20
ag21
ag21
aa(lp220
g20
ag20
ag20
ag21
ag21
ag21
ag20
ag21
ag21
ag21
ag21
ag20
ag21
ag21
ag21
ag21
ag20
ag20
ag21
ag21
ag21
aa(lp221
g20
ag20
ag20
ag21
ag21
ag20
ag20
ag21
ag20
ag21
ag20
ag21
ag20
ag20
ag21
ag21
ag21
ag20
ag20
ag21
ag21
aa(lp222
g20
ag20
ag20
ag21
ag21
ag20
ag20
ag21
ag20
ag21
ag21
ag20
ag21
ag21
ag20
ag21
ag20
ag20
ag21
ag20
ag21
aa(lp223
g20
ag20
ag20
ag21
ag20
ag21
ag21
ag21
ag20
ag20
ag20
ag21
ag21
ag21
ag21
ag20
ag20
ag21
ag20
ag20
ag20
aa(lp224
g20
ag20
ag20
ag21
ag20
ag21
ag21
ag20
ag21
ag21
ag21
ag20
ag21
ag20
ag21
ag20
ag20
ag21
ag21
ag20
ag21
aa(lp225
g20
ag20
ag20
ag21
ag20
ag20
ag20
ag20
ag21
ag21
ag21
ag20
ag20
ag20
ag21
ag20
ag21
ag20
ag21
ag20
ag20
aa(lp226
g20
ag20
ag20
ag21
ag20
ag20
ag21
ag21
ag21
ag20
ag21
ag20
ag21
ag20
ag21
ag20
ag21
ag20
ag20
ag21
ag20
aa(lp227
g20
ag20
ag20
ag21
ag21
ag20
ag20
ag21
ag21
ag21
ag21
ag21
ag20
ag21
ag20
ag20
ag21
ag21
ag21
ag20
ag20
aa(lp228
g20
ag20
ag20
ag21
ag21
ag20
ag20
ag20
ag21
ag20
ag21
ag21
ag20
ag20
ag21
ag21
ag20
ag20
ag21
ag21
ag21
aa(lp229
g20
ag20
ag20
ag21
ag20
ag21
ag20
ag20
ag21
ag20
ag21
ag21
ag20
ag21
ag21
ag20
ag20
ag20
ag21
ag20
ag20
aa(lp230
g20
ag20
ag20
ag21
ag21
ag20
ag21
ag21
ag20
ag20
ag20
ag20
ag20
ag21
ag20
ag20
ag20
ag21
ag20
ag21
ag21
aa(lp231
g20
ag20
ag20
ag21
ag21
ag21
ag21
ag21
ag21
ag21
ag20
ag20
ag20
ag21
ag21
ag21
ag20
ag21
ag21
ag21
ag21
aa(lp232
g20
ag20
ag20
ag21
ag21
ag21
ag21
ag21
ag21
ag20
ag20
ag20
ag21
ag20
ag21
ag21
ag20
ag21
ag21
ag21
ag20
aa(lp233
g20
ag20
ag20
ag21
ag21
ag20
ag21
ag21
ag21
ag21
ag20
ag20
ag20
ag20
ag20
ag21
ag20
ag20
ag20
ag20
ag20
aa(lp234
g20
ag20
ag20
ag21
ag20
ag21
ag21
ag21
ag20
ag20
ag21
ag21
ag20
ag21
ag21
ag20
ag21
ag21
ag21
ag20
ag20
aa(lp235
g20
ag20
ag20
ag21
ag21
ag21
ag21
ag21
ag20
ag21
ag20
ag20
ag20
ag21
ag20
ag21
ag20
ag20
ag20
ag21
ag21
aa(lp236
g20
ag20
ag20
ag21
ag20
ag20
ag21
ag20
ag21
ag21
ag20
ag21
ag20
ag20
ag20
ag20
ag21
ag21
ag21
ag21
ag20
aa(lp237
g20
ag20
ag20
ag21
ag21
ag21
ag21
ag20
ag21
ag21
ag20
ag20
ag20
ag21
ag21
ag21
ag20
ag20
ag20
ag20
ag21
aa(lp238
g20
ag20
ag20
ag21
ag21
ag20
ag20
ag21
ag20
ag21
ag20
ag21
ag21
ag20
ag20
ag20
ag21
ag21
ag20
ag21
ag20
aa(lp239
g20
ag20
ag20
ag21
ag21
ag20
ag20
ag21
ag20
ag20
ag21
ag20
ag21
ag21
ag21
ag21
ag20
ag20
ag21
ag20
ag21
aa(lp240
g20
ag20
ag20
ag21
ag21
ag21
ag21
ag21
ag20
ag20
ag21
ag20
ag21
ag20
ag20
ag21
ag20
ag21
ag21
ag21
ag20
aa(lp241
g20
ag20
ag20
ag21
ag20
ag21
ag21
ag21
ag20
ag21
ag20
ag20
ag20
ag20
ag20
ag21
ag20
ag21
ag21
ag20
ag21
aa(lp242
g20
ag20
ag20
ag21
ag20
ag20
ag20
ag21
ag21
ag20
ag21
ag21
ag21
ag20
ag21
ag21
ag20
ag20
ag20
ag20
ag20
aa(lp243
g20
ag20
ag20
ag21
ag21
ag21
ag21
ag20
ag20
ag21
ag21
ag20
ag20
ag21
ag20
ag21
ag20
ag21
ag20
ag20
ag21
aa(lp244
g20
ag20
ag20
ag21
ag21
ag21
ag21
ag20
ag20
ag20
ag21
ag21
ag20
ag20
ag21
ag20
ag20
ag20
ag20
ag21
ag20
aa(lp245
g20
ag20
ag20
ag21
ag21
ag20
ag21
ag21
ag20
ag20
ag20
ag20
ag21
ag21
ag21
ag20
ag20
ag21
ag21
ag20
ag21
aa(lp246
g20
ag20
ag20
ag21
ag21
ag20
ag21
ag21
ag21
ag20
ag21
ag20
ag20
ag21
ag20
ag20
ag21
ag20
ag20
ag20
ag21
aa(lp247
g20
ag20
ag20
ag21
ag20
ag21
ag21
ag20
ag21
ag20
ag20
ag20
ag21
ag20
ag20
ag21
ag20
ag21
ag21
ag20
ag21
aa(lp248
g20
ag20
ag20
ag21
ag21
ag20
ag20
ag21
ag21
ag20
ag20
ag21
ag20
ag20
ag20
ag21
ag20
ag20
ag20
ag21
ag21
aa(lp249
g20
ag20
ag20
ag21
ag21
ag20
ag20
ag20
ag20
ag20
ag21
ag20
ag20
ag20
ag20
ag20
ag20
ag20
ag20
ag20
ag20
aa(lp250
g20
ag20
ag20
ag21
ag20
ag21
ag21
ag21
ag21
ag20
ag20
ag20
ag21
ag20
ag20
ag20
ag20
ag21
ag20
ag20
ag21
aa(lp251
g20
ag20
ag20
ag21
ag20
ag21
ag20
ag20
ag21
ag20
ag20
ag21
ag20
ag20
ag20
ag20
ag20
ag21
ag20
ag20
ag21
aa(lp252
g20
ag20
ag20
ag21
ag20
ag21
ag20
ag21
ag21
ag20
ag21
ag21
ag20
ag20
ag21
ag21
ag20
ag21
ag20
ag21
ag21
aa(lp253
g20
ag20
ag20
ag21
ag21
ag21
ag20
ag21
ag20
ag21
ag20
ag21
ag20
ag21
ag20
ag20
ag20
ag20
ag20
ag20
ag20
aa(lp254
g20
ag20
ag20
ag21
ag21
ag20
ag21
ag21
ag20
ag20
ag21
ag21
ag21
ag20
ag21
ag21
ag21
ag21
ag20
ag21
ag20
aa(lp255
g20
ag20
ag20
ag21
ag21
ag21
ag20
ag21
ag20
ag20
ag21
ag20
ag21
ag21
ag21
ag21
ag20
ag21
ag20
ag21
ag21
aa(lp256
g20
ag20
ag20
ag21
ag20
ag21
ag21
ag21
ag20
ag21
ag20
ag20
ag21
ag20
ag20
ag21
ag20
ag21
ag20
ag21
ag21
aa(lp257
g20
ag20
ag20
ag21
ag21
ag20
ag20
ag20
ag20
ag21
ag21
ag21
ag20
ag21
ag20
ag21
ag20
ag20
ag20
ag20
ag20
aa(lp258
g20
ag20
ag20
ag21
ag20
ag21
ag21
ag21
ag21
ag21
ag20
ag20
ag20
ag20
ag20
ag21
ag20
ag21
ag21
ag20
ag21
aa(lp259
g20
ag20
ag20
ag21
ag20
ag21
ag21
ag20
ag21
ag21
ag20
ag20
ag20
ag20
ag20
ag21
ag20
ag20
ag21
ag20
ag20
aa(lp260
g20
ag20
ag20
ag21
ag21
ag20
ag21
ag21
ag21
ag20
ag21
ag21
ag20
ag20
ag20
ag21
ag20
ag20
ag20
ag20
ag20
aa(lp261
g20
ag20
ag20
ag21
ag21
ag21
ag21
ag20
ag21
ag21
ag20
ag21
ag21
ag20
ag21
ag21
ag20
ag21
ag21
ag20
ag21
aa(lp262
g20
ag20
ag20
ag21
ag21
ag20
ag21
ag20
ag21
ag21
ag20
ag20
ag21
ag21
ag20
ag21
ag20
ag20
ag21
ag20
ag21
aa(lp263
g20
ag20
ag20
ag21
ag20
ag21
ag20
ag20
ag20
ag21
ag20
ag21
ag20
ag21
ag21
ag20
ag20
ag21
ag21
ag20
ag21
aa(lp264
g20
ag20
ag20
ag21
ag20
ag20
ag21
ag21
ag21
ag20
ag21
ag20
ag21
ag21
ag20
ag21
ag21
ag20
ag21
ag20
ag20
aa(lp265
g20
ag20
ag20
ag21
ag20
ag20
ag20
ag20
ag20
ag20
ag21
ag20
ag21
ag20
ag20
ag21
ag21
ag21
ag20
ag20
ag20
aa(lp266
g20
ag20
ag20
ag21
ag21
ag20
ag20
ag21
ag20
ag20
ag21
ag20
ag20
ag21
ag20
ag21
ag21
ag21
ag20
ag20
ag20
aa(lp267
g20
ag20
ag20
ag21
ag21
ag20
ag21
ag20
ag21
ag20
ag20
ag20
ag20
ag21
ag20
ag20
ag21
ag21
ag21
ag20
ag20
aa(lp268
g20
ag20
ag20
ag21
ag20
ag21
ag20
ag21
ag21
ag21
ag21
ag20
ag21
ag20
ag21
ag20
ag20
ag21
ag21
ag20
ag21
aa(lp269
g20
ag20
ag20
ag21
ag20
ag20
ag21
ag21
ag21
ag20
ag20
ag20
ag21
ag21
ag21
ag20
ag21
ag21
ag20
ag20
ag20
aa(lp270
g20
ag20
ag20
ag21
ag21
ag20
ag21
ag20
ag21
ag20
ag21
ag21
ag20
ag21
ag20
ag21
ag21
ag20
ag20
ag21
ag20
aa(lp271
g20
ag20
ag20
ag21
ag20
ag21
ag20
ag21
ag21
ag20
ag21
ag21
ag20
ag21
ag21
ag20
ag20
ag21
ag20
ag21
ag21
aasg31
S'XE'
p272
sg33
(iid3_node
node
p273
(dp274
g2
(iid3_node
node
p275
(dp276
g2
(iid3_node
node
p277
(dp278
g15
I0
sg16
I01
sbsg17
(lp279
g208
ag210
ag212
ag219
ag223
ag224
ag229
ag234
ag241
ag247
ag250
ag251
ag252
ag256
ag258
ag259
ag263
ag268
ag271
asg31
g32
sg33
(iid3_node
node
p280
(dp281
g2
(iid3_node
node
p282
(dp283
g2
(iid3_node
node
p284
(dp285
g2
(iid3_node
node
p286
(dp287
g2
(iid3_node
node
p288
(dp289
g15
I1
sg16
I01
sbsg17
(lp290
g208
asg31
g116
sg33
(iid3_node
node
p291
(dp292
g15
I0
sg16
I01
sbsg54
(lp293
g263
asbsg17
(lp294
g210
ag229
ag251
asg31
g62
sg33
(iid3_node
node
p295
(dp296
g2
(iid3_node
node
p297
(dp298
g2
(iid3_node
node
p299
(dp300
g15
I1
sg16
I01
sbsg17
(lp301
g229
asg31
g116
sg33
(iid3_node
node
p302
(dp303
g15
I0
sg16
I01
sbsg54
(lp304
g251
asbsg17
(lp305
g210
asg31
g57
sg33
(iid3_node
node
p306
(dp307
g15
I1
sg16
I01
sbsg54
(lp308
g229
ag251
asbsg54
(lp309
g208
ag263
asbsg17
(lp310
g252
ag268
ag271
asg31
g41
sg33
(iid3_node
node
p311
(dp312
g15
I1
sg16
I01
sbsg54
(lp313
g208
ag210
ag229
ag251
ag263
asbsg17
(lp314
g212
ag219
ag223
ag224
ag234
ag241
ag247
ag250
ag256
ag258
ag259
asg31
g68
sg33
(iid3_node
node
p315
(dp316
g2
(iid3_node
node
p317
(dp318
g2
(iid3_node
node
p319
(dp320
g15
I1
sg16
I01
sbsg17
(lp321
g224
ag259
asg31
g57
sg33
(iid3_node
node
p322
(dp323
g2
(iid3_node
node
p324
(dp325
g15
I0
sg16
I01
sbsg17
(lp326
g224
asg31
g116
sg33
(iid3_node
node
p327
(dp328
g15
I1
sg16
I01
sbsg54
(lp329
g259
asbsg54
(lp330
g247
asbsg17
(lp331
g212
ag219
ag223
ag234
ag241
ag250
ag256
ag258
asg31
g41
sg33
(iid3_node
node
p332
(dp333
g2
(iid3_node
node
p334
(dp335
g2
(iid3_node
node
p336
(dp337
g15
I0
sg16
I01
sbsg17
(lp338
g212
ag241
ag256
asg31
g57
sg33
(iid3_node
node
p339
(dp340
g15
I1
sg16
I01
sbsg54
(lp341
g223
ag234
asbsg17
(lp342
g219
ag250
ag258
asg31
g62
sg33
(iid3_node
node
p343
(dp344
g15
I1
sg16
I01
sbsg54
(lp345
g212
ag223
ag234
ag241
ag256
asbsg54
(lp346
g224
ag247
ag259
asbsg54
(lp347
g208
ag210
ag229
ag251
ag252
ag263
ag268
ag271
asbsg54
(lp348
g217
ag218
ag225
ag226
ag236
ag242
ag264
ag265
ag269
asbsg17
(lp349
g205
ag206
ag207
ag209
ag211
ag213
ag214
ag215
ag216
ag220
ag221
ag222
ag227
ag228
ag230
ag231
ag232
ag233
ag235
ag237
ag238
ag239
ag240
ag243
ag244
ag245
ag246
ag248
ag249
ag253
ag254
ag255
ag257
ag260
ag261
ag262
ag266
ag267
ag270
asg31
g101
sg33
(iid3_node
node
p350
(dp351
g2
(iid3_node
node
p352
(dp353
g2
(iid3_node
node
p354
(dp355
g2
(iid3_node
node
p356
(dp357
g2
(iid3_node
node
p358
(dp359
g15
I0
sg16
I01
sbsg17
(lp360
g228
asg31
g62
sg33
(iid3_node
node
p361
(dp362
g15
I1
sg16
I01
sbsg54
(lp363
g249
ag257
asbsg17
(lp364
g209
ag221
ag222
ag227
ag238
ag239
ag248
ag266
asg31
g41
sg33
(iid3_node
node
p365
(dp366
g2
(iid3_node
node
p367
(dp368
g2
(iid3_node
node
p369
(dp370
g2
(iid3_node
node
p371
(dp372
g15
I0
sg16
I01
sbsg17
(lp373
g239
asg31
g135
sg33
(iid3_node
node
p374
(dp375
g15
I1
sg16
I01
sbsg54
(lp376
g266
asbsg17
(lp377
g221
ag222
ag238
asg31
g57
sg33
(iid3_node
node
p378
(dp379
g2
(iid3_node
node
p380
(dp381
g2
(iid3_node
node
p382
(dp383
g15
I1
sg16
I01
sbsg17
(lp384
g238
asg31
g135
sg33
(iid3_node
node
p385
(dp386
g15
I0
sg16
I01
sbsg54
(lp387
g221
asbsg17
(lp388
g222
asg31
g116
sg33
(iid3_node
node
p389
(dp390
g15
I1
sg16
I01
sbsg54
(lp391
g221
ag238
asbsg54
(lp392
g239
ag266
asbsg17
(lp393
g209
ag227
ag248
asg31
g62
sg33
(iid3_node
node
p394
(dp395
g2
(iid3_node
node
p396
(dp397
g15
I1
sg16
I01
sbsg17
(lp398
g227
asg31
g57
sg33
(iid3_node
node
p399
(dp400
g15
I0
sg16
I01
sbsg54
(lp401
g209
ag248
asbsg54
(lp402
g221
ag222
ag238
ag239
ag266
asbsg54
(lp403
g228
ag249
ag257
asbsg17
(lp404
g207
ag211
ag213
ag214
ag215
ag230
ag233
ag245
ag246
ag254
ag260
ag262
ag267
ag270
asg31
g68
sg33
(iid3_node
node
p405
(dp406
g2
(iid3_node
node
p407
(dp408
g2
(iid3_node
node
p409
(dp410
g15
I0
sg16
I01
sbsg17
(lp411
g214
ag262
asg31
g57
sg33
(iid3_node
node
p412
(dp413
g15
I1
sg16
I01
sbsg54
(lp414
g267
ag270
asbsg17
(lp415
g207
ag211
ag213
ag215
ag230
ag233
ag245
ag246
ag254
ag260
asg31
g41
sg33
(iid3_node
node
p416
(dp417
g2
(iid3_node
node
p418
(dp419
g2
(iid3_node
node
p420
(dp421
g15
I1
sg16
I01
sbsg17
(lp422
g254
asg31
g116
sg33
(iid3_node
node
p423
(dp424
g15
I0
sg16
I01
sbsg54
(lp425
g215
ag230
ag245
asbsg17
(lp426
g207
ag211
ag213
ag233
ag246
ag260
asg31
g62
sg33
(iid3_node
node
p427
(dp428
g2
(iid3_node
node
p429
(dp430
g2
(iid3_node
node
p431
(dp432
g15
I1
sg16
I01
sbsg17
(lp433
g260
asg31
g129
sg33
(iid3_node
node
p434
(dp435
g15
I0
sg16
I01
sbsg54
(lp436
g246
asbsg17
(lp437
g207
ag211
ag213
ag233
asg31
g57
sg33
(iid3_node
node
p438
(dp439
g2
(iid3_node
node
p440
(dp441
g2
(iid3_node
node
p442
(dp443
g15
I0
sg16
I01
sbsg17
(lp444
g207
asg31
g135
sg33
(iid3_node
node
p445
(dp446
g15
I1
sg16
I01
sbsg54
(lp447
g233
asbsg17
(lp448
g211
ag213
asg31
g129
sg33
(iid3_node
node
p449
(dp450
g15
I1
sg16
I01
sbsg54
(lp451
g207
ag233
asbsg54
(lp452
g246
ag260
asbsg54
(lp453
g215
ag230
ag245
ag254
asbsg54
(lp454
g214
ag262
ag267
ag270
asbsg54
(lp455
g209
ag221
ag222
ag227
ag228
ag238
ag239
ag248
ag249
ag257
ag266
asbsg17
(lp456
g205
ag206
ag216
ag220
ag231
ag232
ag235
ag237
ag240
ag243
ag244
ag253
ag255
ag261
asg31
g32
sg33
(iid3_node
node
p457
(dp458
g2
(iid3_node
node
p459
(dp460
g2
(iid3_node
node
p461
(dp462
g2
(iid3_node
node
p463
(dp464
g15
I1
sg16
I01
sbsg17
(lp465
g216
ag253
asg31
g57
sg33
(iid3_node
node
p466
(dp467
g2
(iid3_node
node
p468
(dp469
g15
I0
sg16
I01
sbsg17
(lp470
g216
asg31
g116
sg33
(iid3_node
node
p471
(dp472
g15
I1
sg16
I01
sbsg54
(lp473
g253
asbsg54
(lp474
g255
asbsg17
(lp475
g220
asg31
g62
sg33
(iid3_node
node
p476
(dp477
g15
I1
sg16
I01
sbsg54
(lp478
g216
ag253
ag255
asbsg17
(lp479
g205
ag206
ag231
ag232
ag235
ag237
ag240
ag243
ag244
ag261
asg31
g68
sg33
(iid3_node
node
p480
(dp481
g2
(iid3_node
node
p482
(dp483
g2
(iid3_node
node
p484
(dp485
g2
(iid3_node
node
p486
(dp487
g15
I0
sg16
I01
sbsg17
(lp488
g243
asg31
g57
sg33
(iid3_node
node
p489
(dp490
g15
I1
sg16
I01
sbsg54
(lp491
g206
ag244
asbsg17
(lp492
g205
ag237
ag261
asg31
g62
sg33
(iid3_node
node
p493
(dp494
g2
(iid3_node
node
p495
(dp496
g15
I1
sg16
I01
sbsg17
(lp497
g205
asg31
g116
sg33
(iid3_node
node
p498
(dp499
g15
I0
sg16
I01
sbsg54
(lp500
g237
ag261
asbsg54
(lp501
g206
ag243
ag244
asbsg17
(lp502
g231
ag232
ag235
ag240
asg31
g41
sg33
(iid3_node
node
p503
(dp504
g2
(iid3_node
node
p505
(dp506
g2
(iid3_node
node
p507
(dp508
g15
I0
sg16
I01
sbsg17
(lp509
g235
asg31
g57
sg33
(iid3_node
node
p510
(dp511
g15
I1
sg16
I01
sbsg54
(lp512
g240
asbsg17
(lp513
g231
ag232
asg31
g62
sg33
(iid3_node
node
p514
(dp515
g2
(iid3_node
node
p516
(dp517
g15
I0
sg16
I01
sbsg17
(lp518
g231
asg31
g57
sg33
(iid3_node
node
p519
(dp520
g15
I1
sg16
I01
sbsg54
(lp521
g232
asbsg54
(lp522
g235
ag240
asbsg54
(lp523
g205
ag206
ag237
ag243
ag244
ag261
asbsg54
(lp524
g216
ag220
ag253
ag255
asbsg54
(lp525
g207
ag209
ag211
ag213
ag214
ag215
ag221
ag222
ag227
ag228
ag230
ag233
ag238
ag239
ag245
ag246
ag248
ag249
ag254
ag257
ag260
ag262
ag266
ag267
ag270
asbsg54
(lp526
g208
ag210
ag212
ag217
ag218
ag219
ag223
ag224
ag225
ag226
ag229
ag234
ag236
ag241
ag242
ag247
ag250
ag251
ag252
ag256
ag258
ag259
ag263
ag264
ag265
ag268
ag269
ag271
asbsg54
(lp527
g81
ag73
ag82
ag19
ag83
ag84
ag85
ag86
ag87
ag22
ag74
ag88
ag23
ag89
ag75
ag76
ag90
ag77
ag91
ag92
ag93
ag94
ag95
ag24
ag25
ag96
ag26
ag27
ag78
ag28
ag97
ag29
ag98
ag99
ag30
ag100
ag79
asbsg17
(lp528
(lp529
g20
ag20
ag21
ag21
ag21
ag21
ag21
ag20
ag20
ag20
ag21
ag20
ag20
ag20
ag20
ag20
ag20
ag21
ag21
ag21
ag20
aa(lp530
g20
ag20
ag21
ag20
ag20
ag20
ag20
ag21
ag21
ag21
ag20
ag21
ag21
ag20
ag21
ag21
ag20
ag21
ag21
ag21
ag20
aa(lp531
g20
ag20
ag21
ag21
ag21
ag21
ag21
ag20
ag21
ag21
ag21
ag20
ag21
ag21
ag21
ag21
ag20
ag20
ag21
ag20
ag21
aa(lp532
g20
ag20
ag21
ag20
ag21
ag21
ag20
ag20
ag21
ag21
ag21
ag21
ag20
ag20
ag20
ag21
ag21
ag21
ag20
ag21
ag20
aa(lp533
g20
ag20
ag21
ag20
ag21
ag20
ag20
ag21
ag21
ag20
ag21
ag20
ag21
ag21
ag20
ag20
ag20
ag21
ag20
ag20
ag21
aa(lp534
g20
ag20
ag21
ag21
ag21
ag21
ag21
ag20
ag20
ag21
ag20
ag21
ag20
ag20
ag20
ag21
ag20
ag21
ag21
ag20
ag21
aa(lp535
g20
ag20
ag21
ag21
ag21
ag20
ag20
ag21
ag21
ag21
ag20
ag21
ag20
ag21
ag20
ag21
ag20
ag21
ag21
ag21
ag20
aa(lp536
g20
ag20
ag21
ag21
ag21
ag20
ag21
ag21
ag21
ag20
ag21
ag21
ag21
ag21
ag21
ag20
ag21
ag20
ag20
ag21
ag21
aa(lp537
g20
ag20
ag21
ag20
ag21
ag20
ag21
ag21
ag21
ag21
ag20
ag20
ag20
ag20
ag20
ag20
ag21
ag21
ag20
ag20
ag20
aa(lp538
g20
ag20
ag21
ag21
ag21
ag20
ag20
ag20
ag20
ag21
ag21
ag21
ag20
ag20
ag20
ag21
ag21
ag20
ag21
ag20
ag21
aa(lp539
g20
ag20
ag21
ag21
ag21
ag20
ag20
ag21
ag21
ag20
ag20
ag21
ag21
ag21
ag20
ag20
ag21
ag21
ag20
ag20
ag21
aa(lp540
g20
ag20
ag21
ag20
ag20
ag21
ag20
ag20
ag21
ag21
ag20
ag20
ag21
ag20
ag21
ag21
ag21
ag21
ag20
ag20
ag20
aa(lp541
g20
ag20
ag21
ag21
ag21
ag20
ag21
ag21
ag21
ag20
ag21
ag21
ag20
ag20
ag21
ag20
ag20
ag20
ag21
ag20
ag21
aa(lp542
g20
ag20
ag21
ag20
ag21
ag20
ag21
ag20
ag21
ag21
ag21
ag21
ag21
ag20
ag20
ag21
ag21
ag20
ag20
ag21
ag21
aa(lp543
g20
ag20
ag21
ag20
ag20
ag21
ag20
ag21
ag21
ag21
ag21
ag20
ag21
ag21
ag20
ag20
ag20
ag21
ag20
ag21
ag20
aa(lp544
g20
ag20
ag21
ag21
ag20
ag21
ag20
ag21
ag21
ag20
ag21
ag20
ag20
ag20
ag21
ag20
ag20
ag21
ag21
ag21
ag20
aa(lp545
g20
ag20
ag21
ag21
ag21
ag21
ag20
ag21
ag21
ag20
ag21
ag20
ag20
ag21
ag21
ag20
ag20
ag20
ag21
ag21
ag21
aa(lp546
g20
ag20
ag21
ag21
ag21
ag20
ag20
ag21
ag20
ag20
ag20
ag21
ag20
ag21
ag21
ag20
ag20
ag20
ag20
ag20
ag21
aa(lp547
g20
ag20
ag21
ag20
ag21
ag21
ag20
ag21
ag21
ag20
ag20
ag21
ag21
ag21
ag20
ag21
ag21
ag21
ag20
ag21
ag20
aa(lp548
g20
ag20
ag21
ag20
ag20
ag21
ag20
ag20
ag20
ag20
ag20
ag21
ag21
ag20
ag21
ag20
ag21
ag21
ag21
ag20
ag20
aa(lp549
g20
ag20
ag21
ag21
ag20
ag21
ag20
ag20
ag20
ag20
ag21
ag21
ag20
ag21
ag20
ag21
ag21
ag21
ag21
ag20
ag20
aa(lp550
g20
ag20
ag21
ag20
ag21
ag21
ag21
ag20
ag21
ag20
ag20
ag20
ag21
ag21
ag20
ag21
ag20
ag20
ag21
ag20
ag21
aa(lp551
g20
ag20
ag21
ag20
ag21
ag20
ag20
ag21
ag20
ag20
ag20
ag21
ag20
ag20
ag20
ag20
ag21
ag21
ag20
ag20
ag21
aa(lp552
g20
ag20
ag21
ag20
ag21
ag20
ag20
ag21
ag20
ag20
ag20
ag20
ag21
ag20
ag21
ag21
ag20
ag21
ag21
ag21
ag20
aa(lp553
g20
ag20
ag21
ag20
ag21
ag20
ag20
ag21
ag21
ag21
ag21
ag20
ag20
ag20
ag21
ag21
ag21
ag21
ag21
ag20
ag20
aa(lp554
g20
ag20
ag21
ag20
ag20
ag20
ag21
ag20
ag20
ag21
ag21
ag21
ag21
ag21
ag21
ag21
ag20
ag20
ag20
ag20
ag20
aa(lp555
g20
ag20
ag21
ag20
ag21
ag20
ag20
ag21
ag21
ag20
ag21
ag21
ag20
ag21
ag20
ag20
ag21
ag21
ag21
ag21
ag21
aa(lp556
g20
ag20
ag21
ag21
ag21
ag20
ag20
ag21
ag20
ag21
ag21
ag20
ag20
ag20
ag20
ag21
ag21
ag20
ag20
ag20
ag20
aa(lp557
g20
ag20
ag21
ag21
ag20
ag21
ag21
ag21
ag20
ag21
ag20
ag21
ag21
ag20
ag20
ag20
ag20
ag20
ag21
ag21
ag20
aa(lp558
g20
ag20
ag21
ag20
ag21
ag20
ag20
ag21
ag20
ag20
ag20
ag21
ag20
ag20
ag20
ag21
ag20
ag20
ag20
ag20
ag21
aa(lp559
g20
ag20
ag21
ag20
ag21
ag20
ag21
ag21
ag20
ag20
ag21
ag21
ag20
ag21
ag20
ag20
ag21
ag20
ag20
ag20
ag21
aa(lp560
g20
ag20
ag21
ag20
ag20
ag20
ag21
ag21
ag21
ag20
ag20
ag20
ag20
ag21
ag20
ag21
ag21
ag21
ag21
ag21
ag20
aa(lp561
g20
ag20
ag21
ag20
ag21
ag20
ag20
ag20
ag21
ag20
ag21
ag21
ag21
ag20
ag21
ag21
ag20
ag20
ag21
ag21
ag21
aa(lp562
g20
ag20
ag21
ag20
ag21
ag20
ag21
ag21
ag21
ag20
ag20
ag21
ag21
ag20
ag21
ag20
ag20
ag21
ag21
ag20
ag20
aa(lp563
g20
ag20
ag21
ag20
ag21
ag21
ag20
ag20
ag20
ag21
ag21
ag20
ag20
ag21
ag20
ag21
ag20
ag21
ag20
ag20
ag21
aa(lp564
g20
ag20
ag21
ag20
ag20
ag21
ag21
ag21
ag21
ag20
ag20
ag20
ag21
ag21
ag20
ag21
ag20
ag21
ag20
ag20
ag21
aa(lp565
g20
ag20
ag21
ag20
ag20
ag20
ag20
ag20
ag21
ag20
ag21
ag20
ag21
ag21
ag20
ag20
ag20
ag21
ag20
ag20
ag20
aa(lp566
g20
ag20
ag21
ag21
ag21
ag20
ag20
ag20
ag21
ag21
ag21
ag21
ag21
ag20
ag21
ag21
ag20
ag20
ag20
ag20
ag21
aa(lp567
g20
ag20
ag21
ag20
ag21
ag21
ag20
ag20
ag20
ag21
ag20
ag21
ag20
ag20
ag20
ag21
ag20
ag21
ag20
ag20
ag21
aa(lp568
g20
ag20
ag21
ag21
ag21
ag20
ag21
ag20
ag20
ag21
ag20
ag20
ag20
ag21
ag21
ag21
ag21
ag20
ag21
ag21
ag21
aa(lp569
g20
ag20
ag21
ag20
ag20
ag21
ag21
ag21
ag21
ag20
ag20
ag20
ag21
ag21
ag20
ag20
ag20
ag21
ag20
ag21
ag21
aa(lp570
g20
ag20
ag21
ag21
ag21
ag20
ag21
ag20
ag20
ag20
ag20
ag21
ag21
ag21
ag21
ag20
ag21
ag20
ag20
ag20
ag20
aa(lp571
g20
ag20
ag21
ag21
ag21
ag21
ag20
ag21
ag20
ag20
ag20
ag21
ag20
ag21
ag20
ag20
ag20
ag20
ag20
ag21
ag21
aa(lp572
g20
ag20
ag21
ag21
ag21
ag20
ag21
ag21
ag20
ag20
ag21
ag21
ag21
ag20
ag20
ag21
ag21
ag20
ag21
ag20
ag21
aa(lp573
g20
ag20
ag21
ag21
ag21
ag21
ag21
ag20
ag21
ag20
ag21
ag21
ag21
ag20
ag21
ag21
ag20
ag20
ag21
ag20
ag21
aa(lp574
g20
ag20
ag21
ag20
ag21
ag20
ag20
ag21
ag20
ag20
ag21
ag20
ag21
ag21
ag20
ag20
ag21
ag21
ag21
ag21
ag21
aa(lp575
g20
ag20
ag21
ag21
ag20
ag21
ag20
ag20
ag21
ag21
ag21
ag21
ag20
ag21
ag21
ag20
ag21
ag21
ag21
ag21
ag20
aa(lp576
g20
ag20
ag21
ag21
ag20
ag20
ag20
ag20
ag20
ag20
ag20
ag21
ag20
ag20
ag21
ag20
ag21
ag21
ag20
ag21
ag20
aa(lp577
g20
ag20
ag21
ag20
ag21
ag20
ag20
ag20
ag20
ag21
ag21
ag21
ag20
ag20
ag20
ag21
ag21
ag20
ag21
ag21
ag21
aa(lp578
g20
ag20
ag21
ag21
ag20
ag20
ag20
ag20
ag21
ag20
ag20
ag21
ag20
ag20
ag20
ag21
ag21
ag21
ag21
ag21
ag20
aa(lp579
g20
ag20
ag21
ag20
ag20
ag21
ag21
ag21
ag20
ag20
ag20
ag21
ag21
ag20
ag20
ag21
ag20
ag21
ag20
ag21
ag21
aa(lp580
g20
ag20
ag21
ag20
ag21
ag20
ag20
ag21
ag21
ag21
ag21
ag20
ag21
ag20
ag21
ag21
ag21
ag20
ag21
ag20
ag20
aa(lp581
g20
ag20
ag21
ag20
ag21
ag21
ag20
ag20
ag21
ag20
ag20
ag21
ag20
ag20
ag20
ag20
ag21
ag20
ag21
ag20
ag20
aa(lp582
g20
ag20
ag21
ag21
ag20
ag21
ag21
ag20
ag20
ag21
ag20
ag20
ag20
ag20
ag20
ag21
ag20
ag21
ag21
ag20
ag21
aa(lp583
g20
ag20
ag21
ag20
ag21
ag20
ag21
ag21
ag21
ag21
ag21
ag20
ag21
ag20
ag20
ag21
ag20
ag21
ag20
ag20
ag20
aa(lp584
g20
ag20
ag21
ag20
ag21
ag20
ag21
ag20
ag21
ag20
ag21
ag20
ag21
ag21
ag21
ag21
ag20
ag20
ag21
ag21
ag21
aa(lp585
g20
ag20
ag21
ag20
ag21
ag21
ag21
ag21
ag20
ag20
ag21
ag20
ag20
ag21
ag20
ag21
ag20
ag21
ag20
ag21
ag21
aa(lp586
g20
ag20
ag21
ag21
ag20
ag20
ag21
ag20
ag21
ag21
ag20
ag20
ag20
ag20
ag20
ag20
ag20
ag21
ag20
ag21
ag20
aa(lp587
g20
ag20
ag21
ag21
ag21
ag20
ag21
ag20
ag21
ag21
ag20
ag20
ag21
ag20
ag21
ag20
ag21
ag20
ag20
ag20
ag20
aa(lp588
g20
ag20
ag21
ag20
ag21
ag20
ag21
ag20
ag20
ag21
ag21
ag21
ag20
ag20
ag20
ag21
ag21
ag20
ag21
ag20
ag21
aa(lp589
g20
ag20
ag21
ag20
ag20
ag21
ag20
ag20
ag21
ag21
ag20
ag21
ag21
ag20
ag20
ag20
ag20
ag21
ag21
ag20
ag21
aa(lp590
g20
ag20
ag21
ag20
ag20
ag20
ag21
ag21
ag21
ag21
ag20
ag21
ag20
ag20
ag20
ag20
ag21
ag20
ag21
ag20
ag20
aa(lp591
g20
ag20
ag21
ag20
ag20
ag21
ag21
ag21
ag20
ag21
ag20
ag20
ag20
ag21
ag21
ag21
ag20
ag20
ag21
ag21
ag20
aa(lp592
g20
ag20
ag21
ag21
ag20
ag20
ag21
ag20
ag21
ag20
ag20
ag21
ag20
ag21
ag20
ag21
ag21
ag20
ag20
ag21
ag20
aa(lp593
g20
ag20
ag21
ag21
ag21
ag20
ag21
ag20
ag20
ag21
ag20
ag20
ag20
ag21
ag20
ag21
ag21
ag20
ag21
ag21
ag21
aa(lp594
g20
ag20
ag21
ag21
ag21
ag20
ag20
ag20
ag20
ag20
ag21
ag20
ag20
ag21
ag21
ag21
ag20
ag20
ag20
ag21
ag21
aa(lp595
g20
ag20
ag21
ag21
ag21
ag20
ag21
ag21
ag21
ag20
ag20
ag21
ag21
ag20
ag20
ag20
ag20
ag21
ag21
ag21
ag21
aa(lp596
g20
ag20
ag21
ag21
ag20
ag20
ag20
ag20
ag21
ag20
ag20
ag21
ag20
ag20
ag20
ag20
ag21
ag21
ag20
ag20
ag20
aa(lp597
g20
ag20
ag21
ag21
ag20
ag20
ag20
ag20
ag20
ag20
ag20
ag20
ag20
ag21
ag21
ag21
ag20
ag20
ag20
ag21
ag20
aa(lp598
g20
ag20
ag21
ag21
ag20
ag21
ag21
ag20
ag20
ag20
ag20
ag21
ag20
ag20
ag20
ag20
ag20
ag21
ag21
ag20
ag21
aa(lp599
g20
ag20
ag21
ag21
ag21
ag21
ag20
ag20
ag21
ag20
ag20
ag21
ag20
ag20
ag21
ag21
ag20
ag20
ag21
ag20
ag21
aa(lp600
g20
ag20
ag21
ag20
ag20
ag21
ag20
ag21
ag20
ag21
ag20
ag20
ag20
ag20
ag20
ag20
ag21
ag21
ag20
ag20
ag20
aa(lp601
g20
ag20
ag21
ag21
ag21
ag21
ag20
ag21
ag21
ag20
ag20
ag21
ag21
ag20
ag20
ag20
ag20
ag21
ag20
ag20
ag20
aa(lp602
g20
ag20
ag21
ag20
ag20
ag20
ag21
ag21
ag21
ag20
ag20
ag20
ag21
ag20
ag21
ag21
ag20
ag21
ag20
ag20
ag20
aa(lp603
g20
ag20
ag21
ag21
ag20
ag20
ag20
ag20
ag20
ag21
ag20
ag21
ag21
ag20
ag20
ag21
ag20
ag20
ag21
ag20
ag20
aa(lp604
g20
ag20
ag21
ag21
ag21
ag20
ag21
ag21
ag21
ag20
ag20
ag21
ag21
ag20
ag20
ag20
ag21
ag21
ag21
ag20
ag21
aa(lp605
g20
ag20
ag21
ag20
ag20
ag20
ag21
ag21
ag21
ag21
ag20
ag20
ag20
ag21
ag20
ag21
ag21
ag20
ag21
ag21
ag20
aa(lp606
g20
ag20
ag21
ag20
ag20
ag20
ag20
ag20
ag21
ag20
ag20
ag20
ag20
ag21
ag21
ag21
ag20
ag21
ag20
ag20
ag20
aa(lp607
g20
ag20
ag21
ag20
ag21
ag20
ag21
ag21
ag20
ag20
ag20
ag20
ag21
ag21
ag20
ag20
ag20
ag20
ag21
ag20
ag21
aa(lp608
g20
ag20
ag21
ag21
ag21
ag20
ag20
ag21
ag21
ag20
ag20
ag20
ag21
ag20
ag21
ag20
ag20
ag21
ag20
ag20
ag20
aa(lp609
g20
ag20
ag21
ag21
ag21
ag20
ag20
ag21
ag21
ag20
ag21
ag21
ag20
ag21
ag20
ag20
ag21
ag20
ag21
ag21
ag21
aa(lp610
g20
ag20
ag21
ag21
ag21
ag21
ag21
ag20
ag21
ag20
ag21
ag21
ag20
ag21
ag21
ag21
ag20
ag20
ag21
ag21
ag20
aa(lp611
g20
ag20
ag21
ag21
ag20
ag20
ag20
ag21
ag20
ag20
ag20
ag20
ag20
ag21
ag20
ag20
ag20
ag21
ag20
ag21
ag20
aasg31
S'XD'
p612
sg33
(iid3_node
node
p613
(dp614
g2
(iid3_node
node
p615
(dp616
g2
(iid3_node
node
p617
(dp618
g2
(iid3_node
node
p619
(dp620
g15
I0
sg16
I01
sbsg17
(lp621
g540
ag543
ag548
ag564
ag569
ag579
ag589
ag591
ag600
asg31
g32
sg33
(iid3_node
node
p622
(dp623
g2
(iid3_node
node
p624
(dp625
g2
(iid3_node
node
p626
(dp627
g2
(iid3_node
node
p628
(dp629
g15
I0
sg16
I01
sbsg17
(lp630
g540
ag589
asg31
g62
sg33
(iid3_node
node
p631
(dp632
g2
(iid3_node
node
p633
(dp634
g15
I0
sg16
I01
sbsg17
(lp635
g589
asg31
g129
sg33
(iid3_node
node
p636
(dp637
g15
I1
sg16
I01
sbsg54
(lp638
g540
asbsg54
(lp639
g548
asbsg17
(lp640
g543
ag600
asg31
g41
sg33
(iid3_node
node
p641
(dp642
g15
I0
sg16
I01
sbsg54
(lp643
g540
ag548
ag589
asbsg17
(lp644
g564
ag569
ag579
ag591
asg31
g68
sg33
(iid3_node
node
p645
(dp646
g2
(iid3_node
node
p647
(dp648
g2
(iid3_node
node
p649
(dp650
g15
I1
sg16
I01
sbsg17
(lp651
g591
asg31
g57
sg33
(iid3_node
node
p652
(dp653
g15
I0
sg16
I01
sbsg54
(lp654
g579
asbsg17
(lp655
g564
ag569
asg31
g62
sg33
(iid3_node
node
p656
(dp657
g15
I1
sg16
I01
sbsg54
(lp658
g579
ag591
asbsg54
(lp659
g540
ag543
ag548
ag589
ag600
asbsg54
(lp660
g530
ag554
ag560
ag565
ag590
ag602
ag605
ag606
asbsg17
(lp661
g532
ag533
ag537
ag542
ag547
ag550
ag551
ag552
ag553
ag555
ag558
ag559
ag561
ag562
ag563
ag567
ag574
ag577
ag580
ag581
ag583
ag584
ag585
ag588
ag607
asg31
g101
sg33
(iid3_node
node
p662
(dp663
g2
(iid3_node
node
p664
(dp665
g2
(iid3_node
node
p666
(dp667
g2
(iid3_node
node
p668
(dp669
g15
I1
sg16
I01
sbsg17
(lp670
g533
ag551
ag552
ag553
ag555
ag558
ag574
ag580
asg31
g41
sg33
(iid3_node
node
p671
(dp672
g2
(iid3_node
node
p673
(dp674
g2
(iid3_node
node
p675
(dp676
g2
(iid3_node
node
p677
(dp678
g15
I0
sg16
I01
sbsg17
(lp679
g551
ag558
asg31
g129
sg33
(iid3_node
node
p680
(dp681
g15
I1
sg16
I01
sbsg54
(lp682
g552
asbsg17
(lp683
g574
asg31
g116
sg33
(iid3_node
node
p684
(dp685
g15
I1
sg16
I01
sbsg54
(lp686
g551
ag552
ag558
asbsg17
(lp687
g533
ag553
ag555
ag580
asg31
g62
sg33
(iid3_node
node
p688
(dp689
g2
(iid3_node
node
p690
(dp691
g15
I1
sg16
I01
sbsg17
(lp692
g553
ag580
asg31
g57
sg33
(iid3_node
node
p693
(dp694
g15
I0
sg16
I01
sbsg54
(lp695
g533
ag555
asbsg54
(lp696
g551
ag552
ag558
ag574
asbsg54
(lp697
g561
ag577
asbsg17
(lp698
g537
ag542
ag559
ag562
ag583
ag584
ag588
ag607
asg31
g68
sg33
(iid3_node
node
p699
(dp700
g2
(iid3_node
node
p701
(dp702
g15
I1
sg16
I01
sbsg17
(lp703
g537
ag559
ag562
ag583
ag607
asg31
g41
sg33
(iid3_node
node
p704
(dp705
g2
(iid3_node
node
p706
(dp707
g15
I1
sg16
I01
sbsg17
(lp708
g537
ag562
ag583
asg31
g62
sg33
(iid3_node
node
p709
(dp710
g15
I0
sg16
I01
sbsg54
(lp711
g559
ag607
asbsg54
(lp712
g542
ag584
ag588
asbsg54
(lp713
g533
ag551
ag552
ag553
ag555
ag558
ag561
ag574
ag577
ag580
asbsg17
(lp714
g532
ag547
ag550
ag563
ag567
ag581
ag585
asg31
g32
sg33
(iid3_node
node
p715
(dp716
g2
(iid3_node
node
p717
(dp718
g2
(iid3_node
node
p719
(dp720
g2
(iid3_node
node
p721
(dp722
g15
I1
sg16
I01
sbsg17
(lp723
g532
ag581
asg31
g62
sg33
(iid3_node
node
p724
(dp725
g15
I0
sg16
I01
sbsg54
(lp726
g563
ag567
asbsg17
(lp727
g547
asg31
g41
sg33
(iid3_node
node
p728
(dp729
g15
I0
sg16
I01
sbsg54
(lp730
g532
ag563
ag567
ag581
asbsg17
(lp731
g550
ag585
asg31
g68
sg33
(iid3_node
node
p732
(dp733
g15
I1
sg16
I01
sbsg54
(lp734
g532
ag547
ag563
ag567
ag581
asbsg54
(lp735
g533
ag537
ag542
ag551
ag552
ag553
ag555
ag558
ag559
ag561
ag562
ag574
ag577
ag580
ag583
ag584
ag588
ag607
asbsg54
(lp736
g530
ag540
ag543
ag548
ag554
ag560
ag564
ag565
ag569
ag579
ag589
ag590
ag591
ag600
ag602
ag605
ag606
asbsg17
(lp737
g529
ag531
ag534
ag535
ag536
ag538
ag539
ag541
ag544
ag545
ag546
ag549
ag556
ag557
ag566
ag568
ag570
ag571
ag572
ag573
ag575
ag576
ag578
ag582
ag586
ag587
ag592
ag593
ag594
ag595
ag596
ag597
ag598
ag599
ag601
ag603
ag604
ag608
ag609
ag610
ag611
asg31
g272
sg33
(iid3_node
node
p738
(dp739
g2
(iid3_node
node
p740
(dp741
g2
(iid3_node
node
p742
(dp743
g15
I0
sg16
I01
sbsg17
(lp744
g544
ag549
ag557
ag575
ag582
ag598
asg31
g32
sg33
(iid3_node
node
p745
(dp746
g2
(iid3_node
node
p747
(dp748
g15
I0
sg16
I01
sbsg17
(lp749
g557
ag582
ag598
asg31
g68
sg33
(iid3_node
node
p750
(dp751
g2
(iid3_node
node
p752
(dp753
g15
I1
sg16
I01
sbsg17
(lp754
g557
asg31
g41
sg33
(iid3_node
node
p755
(dp756
g15
I0
sg16
I01
sbsg54
(lp757
g582
ag598
asbsg54
(lp758
g544
ag549
ag575
asbsg54
(lp759
g576
ag578
ag586
ag592
ag596
ag597
ag603
ag611
asbsg17
(lp760
g529
ag531
ag534
ag535
ag536
ag538
ag539
ag541
ag545
ag546
ag556
ag566
ag568
ag570
ag571
ag572
ag573
ag587
ag593
ag594
ag595
ag599
ag601
ag604
ag608
ag609
ag610
asg31
g101
sg33
(iid3_node
node
p761
(dp762
g2
(iid3_node
node
p763
(dp764
g2
(iid3_node
node
p765
(dp766
g2
(iid3_node
node
p767
(dp768
g15
I1
sg16
I01
sbsg17
(lp769
g535
ag539
ag546
ag556
ag608
ag609
asg31
g41
sg33
(iid3_node
node
p770
(dp771
g2
(iid3_node
node
p772
(dp773
g2
(iid3_node
node
p774
(dp775
g15
I1
sg16
I01
sbsg17
(lp776
g556
asg31
g57
sg33
(iid3_node
node
p777
(dp778
g15
I0
sg16
I01
sbsg54
(lp779
g546
asbsg17
(lp780
g535
ag539
ag608
ag609
asg31
g62
sg33
(iid3_node
node
p781
(dp782
g2
(iid3_node
node
p783
(dp784
g2
(iid3_node
node
p785
(dp786
g2
(iid3_node
node
p787
(dp788
g15
I0
sg16
I01
sbsg17
(lp789
g539
asg31
g129
sg33
(iid3_node
node
p790
(dp791
g15
I1
sg16
I01
sbsg54
(lp792
g608
asbsg17
(lp793
g609
asg31
g116
sg33
(iid3_node
node
p794
(dp795
g15
I1
sg16
I01
sbsg54
(lp796
g539
ag608
asbsg17
(lp797
g535
asg31
g57
sg33
(iid3_node
node
p798
(dp799
g15
I0
sg16
I01
sbsg54
(lp800
g539
ag608
ag609
asbsg54
(lp801
g546
ag556
asbsg54
(lp802
g538
ag566
ag594
asbsg17
(lp803
g536
ag541
ag568
ag570
ag572
ag587
ag593
ag595
ag604
asg31
g68
sg33
(iid3_node
node
p804
(dp805
g2
(iid3_node
node
p806
(dp807
g2
(iid3_node
node
p808
(dp809
g2
(iid3_node
node
p810
(dp811
g15
I0
sg16
I01
sbsg17
(lp812
g568
ag593
asg31
g57
sg33
(iid3_node
node
p813
(dp814
g15
I1
sg16
I01
sbsg54
(lp815
g570
asbsg17
(lp816
g587
asg31
g62
sg33
(iid3_node
node
p817
(dp818
g15
I0
sg16
I01
sbsg54
(lp819
g568
ag570
ag593
asbsg17
(lp820
g536
ag541
ag572
ag595
ag604
asg31
g41
sg33
(iid3_node
node
p821
(dp822
g15
I1
sg16
I01
sbsg54
(lp823
g568
ag570
ag587
ag593
asbsg54
(lp824
g535
ag538
ag539
ag546
ag556
ag566
ag594
ag608
ag609
asbsg17
(lp825
g529
ag531
ag534
ag545
ag571
ag573
ag599
ag601
ag610
asg31
g32
sg33
(iid3_node
node
p826
(dp827
g2
(iid3_node
node
p828
(dp829
g2
(iid3_node
node
p830
(dp831
g15
I1
sg16
I01
sbsg17
(lp832
g545
ag571
ag601
asg31
g41
sg33
(iid3_node
node
p833
(dp834
g2
(iid3_node
node
p835
(dp836
g15
I1
sg16
I01
sbsg17
(lp837
g545
ag601
asg31
g62
sg33
(iid3_node
node
p838
(dp839
g2
(iid3_node
node
p840
(dp841
g15
I0
sg16
I01
sbsg17
(lp842
g545
asg31
g116
sg33
(iid3_node
node
p843
(dp844
g15
I1
sg16
I01
sbsg54
(lp845
g601
asbsg54
(lp846
g571
asbsg54
(lp847
g599
asbsg17
(lp848
g529
ag531
ag534
ag573
ag610
asg31
g68
sg33
(iid3_node
node
p849
(dp850
g2
(iid3_node
node
p851
(dp852
g2
(iid3_node
node
p853
(dp854
g15
I0
sg16
I01
sbsg17
(lp855
g534
asg31
g57
sg33
(iid3_node
node
p856
(dp857
g15
I1
sg16
I01
sbsg54
(lp858
g529
asbsg17
(lp859
g531
ag573
ag610
asg31
g62
sg33
(iid3_node
node
p860
(dp861
g2
(iid3_node
node
p862
(dp863
g2
(iid3_node
node
p864
(dp865
g15
I0
sg16
I01
sbsg17
(lp866
g573
asg31
g135
sg33
(iid3_node
node
p867
(dp868
g15
I1
sg16
I01
sbsg54
(lp869
g610
asbsg17
(lp870
g531
asg31
g57
sg33
(iid3_node
node
p871
(dp872
g15
I1
sg16
I01
sbsg54
(lp873
g573
ag610
asbsg54
(lp874
g529
ag534
asbsg54
(lp875
g545
ag571
ag599
ag601
asbsg54
(lp876
g535
ag536
ag538
ag539
ag541
ag546
ag556
ag566
ag568
ag570
ag572
ag587
ag593
ag594
ag595
ag604
ag608
ag609
asbsg54
(lp877
g544
ag549
ag557
ag575
ag576
ag578
ag582
ag586
ag592
ag596
ag597
ag598
ag603
ag611
asbsg54
(lp878
g530
ag532
ag533
ag537
ag540
ag542
ag543
ag547
ag548
ag550
ag551
ag552
ag553
ag554
ag555
ag558
ag559
ag560
ag561
ag562
ag563
ag564
ag565
ag567
ag569
ag574
ag577
ag579
ag580
ag581
ag583
ag584
ag585
ag588
ag589
ag590
ag591
ag600
ag602
ag605
ag606
ag607
asbsg54
(lp879
g81
ag73
ag82
ag205
ag206
ag207
ag208
ag209
ag210
ag211
ag19
ag212
ag213
ag214
ag215
ag83
ag216
ag84
ag85
ag217
ag218
ag219
ag86
ag220
ag221
ag222
ag223
ag87
ag22
ag224
ag74
ag88
ag23
ag225
ag226
ag227
ag228
ag229
ag230
ag231
ag89
ag75
ag76
ag90
ag232
ag233
ag77
ag234
ag235
ag91
ag92
ag236
ag93
ag237
ag238
ag239
ag240
ag241
ag94
ag95
ag242
ag243
ag244
ag245
ag246
ag247
ag248
ag249
ag24
ag250
ag25
ag251
ag96
ag252
ag253
ag26
ag254
ag255
ag256
ag257
ag258
ag259
ag260
ag27
ag78
ag28
ag261
ag262
ag97
ag263
ag264
ag265
ag29
ag266
ag267
ag98
ag268
ag99
ag269
ag270
ag271
ag30
ag100
ag79
asbsg17
(lp880
(lp881
g20
ag21
ag20
ag21
ag21
ag21
ag21
ag20
ag20
ag21
ag20
ag20
ag21
ag20
ag20
ag20
ag21
ag21
ag21
ag21
ag20
aa(lp882
g20
ag21
ag20
ag21
ag20
ag21
ag21
ag21
ag21
ag21
ag21
ag20
ag20
ag20
ag21
ag21
ag21
ag21
ag20
ag20
ag21
aa(lp883
g20
ag21
ag20
ag21
ag21
ag21
ag20
ag20
ag20
ag21
ag20
ag20
ag20
ag20
ag21
ag21
ag21
ag21
ag20
ag20
ag20
aa(lp884
g20
ag21
ag20
ag21
ag20
ag21
ag20
ag20
ag20
ag21
ag21
ag21
ag20
ag21
ag21
ag20
ag21
ag21
ag20
ag20
ag21
aa(lp885
g20
ag21
ag20
ag20
ag21
ag20
ag21
ag20
ag21
ag20
ag21
ag20
ag20
ag21
ag20
ag21
ag20
ag20
ag21
ag20
ag21
aa(lp886
g20
ag21
ag21
ag21
ag20
ag20
ag21
ag21
ag20
ag21
ag21
ag20
ag20
ag21
ag21
ag20
ag20
ag21
ag20
ag21
ag20
aa(lp887
g20
ag21
ag20
ag20
ag20
ag21
ag21
ag21
ag20
ag20
ag20
ag21
ag21
ag20
ag20
ag20
ag20
ag21
ag21
ag20
ag21
aa(lp888
g20
ag21
ag21
ag21
ag21
ag20
ag20
ag20
ag21
ag21
ag20
ag21
ag21
ag21
ag20
ag21
ag21
ag21
ag21
ag20
ag20
aa(lp889
g20
ag21
ag20
ag21
ag21
ag21
ag20
ag21
ag21
ag21
ag21
ag21
ag20
ag21
ag21
ag20
ag21
ag20
ag21
ag21
ag21
aa(lp890
g20
ag21
ag20
ag21
ag21
ag20
ag21
ag20
ag21
ag21
ag20
ag21
ag20
ag20
ag21
ag21
ag21
ag20
ag21
ag20
ag21
aa(lp891
g20
ag21
ag21
ag20
ag20
ag21
ag21
ag21
ag20
ag20
ag20
ag21
ag21
ag20
ag20
ag21
ag21
ag20
ag20
ag20
ag20
aa(lp892
g20
ag21
ag20
ag21
ag20
ag20
ag20
ag21
ag21
ag21
ag20
ag20
ag21
ag21
ag20
ag20
ag21
ag21
ag20
ag21
ag20
aa(lp893
g20
ag21
ag20
ag20
ag21
ag20
ag20
ag21
ag21
ag20
ag21
ag20
ag21
ag20
ag21
ag21
ag21
ag21
ag20
ag21
ag20
aa(lp894
g20
ag21
ag21
ag21
ag21
ag21
ag20
ag21
ag21
ag20
ag21
ag21
ag20
ag21
ag21
ag20
ag21
ag20
ag21
ag20
ag21
aa(lp895
g20
ag21
ag21
ag21
ag21
ag20
ag21
ag21
ag21
ag21
ag21
ag20
ag20
ag20
ag20
ag20
ag21
ag20
ag20
ag21
ag20
aa(lp896
g20
ag21
ag20
ag21
ag21
ag21
ag20
ag20
ag21
ag21
ag20
ag21
ag21
ag20
ag20
ag21
ag21
ag21
ag20
ag20
ag21
aa(lp897
g20
ag21
ag20
ag20
ag21
ag20
ag20
ag20
ag21
ag20
ag20
ag21
ag21
ag21
ag20
ag20
ag21
ag20
ag20
ag21
ag20
aa(lp898
g20
ag21
ag20
ag20
ag20
ag21
ag20
ag20
ag21
ag21
ag20
ag21
ag20
ag21
ag20
ag20
ag20
ag21
ag21
ag20
ag21
aa(lp899
g20
ag21
ag21
ag21
ag20
ag20
ag20
ag21
ag21
ag20
ag21
ag21
ag20
ag20
ag20
ag21
ag20
ag21
ag21
ag21
ag20
aa(lp900
g20
ag21
ag20
ag20
ag21
ag21
ag21
ag20
ag21
ag20
ag20
ag21
ag21
ag21
ag21
ag21
ag21
ag20
ag21
ag21
ag20
aa(lp901
g20
ag21
ag21
ag21
ag21
ag21
ag21
ag20
ag21
ag20
ag21
ag20
ag21
ag20
ag20
ag21
ag21
ag21
ag21
ag21
ag20
aa(lp902
g20
ag21
ag20
ag21
ag21
ag20
ag21
ag20
ag20
ag20
ag21
ag21
ag20
ag20
ag20
ag21
ag21
ag20
ag20
ag21
ag21
aa(lp903
g20
ag21
ag20
ag20
ag20
ag20
ag21
ag21
ag21
ag20
ag21
ag20
ag21
ag20
ag20
ag21
ag21
ag21
ag21
ag20
ag20
aa(lp904
g20
ag21
ag20
ag21
ag20
ag21
ag20
ag21
ag20
ag20
ag20
ag21
ag20
ag20
ag20
ag21
ag20
ag21
ag20
ag21
ag21
aa(lp905
g20
ag21
ag20
ag21
ag21
ag21
ag21
ag20
ag21
ag21
ag21
ag21
ag20
ag20
ag20
ag21
ag20
ag20
ag20
ag20
ag21
aa(lp906
g20
ag21
ag20
ag21
ag21
ag20
ag21
ag21
ag21
ag21
ag21
ag20
ag21
ag21
ag21
ag21
ag20
ag20
ag20
ag21
ag21
aa(lp907
g20
ag21
ag20
ag20
ag20
ag20
ag20
ag21
ag20
ag21
ag21
ag21
ag21
ag21
ag21
ag20
ag20
ag20
ag20
ag21
ag20
aa(lp908
g20
ag21
ag21
ag21
ag21
ag21
ag21
ag20
ag21
ag21
ag21
ag20
ag20
ag20
ag21
ag20
ag20
ag20
ag20
ag21
ag20
aa(lp909
g20
ag21
ag20
ag21
ag20
ag21
ag20
ag21
ag20
ag21
ag20
ag21
ag20
ag21
ag21
ag20
ag20
ag21
ag20
ag20
ag21
aa(lp910
g20
ag21
ag20
ag21
ag20
ag21
ag21
ag20
ag20
ag20
ag21
ag21
ag20
ag21
ag21
ag20
ag20
ag21
ag20
ag20
ag21
aa(lp911
g20
ag21
ag20
ag20
ag21
ag20
ag21
ag21
ag20
ag21
ag20
ag20
ag21
ag20
ag21
ag20
ag20
ag20
ag21
ag20
ag20
aa(lp912
g20
ag21
ag20
ag20
ag21
ag21
ag20
ag21
ag20
ag21
ag21
ag21
ag20
ag20
ag21
ag20
ag21
ag20
ag21
ag20
ag21
aa(lp913
g20
ag21
ag20
ag21
ag21
ag21
ag21
ag20
ag20
ag21
ag20
ag21
ag20
ag20
ag21
ag21
ag20
ag21
ag20
ag20
ag21
aa(lp914
g20
ag21
ag20
ag20
ag21
ag20
ag21
ag21
ag20
ag21
ag21
ag21
ag21
ag20
ag21
ag20
ag20
ag21
ag20
ag20
ag21
aa(lp915
g20
ag21
ag20
ag20
ag21
ag20
ag20
ag20
ag21
ag21
ag20
ag21
ag21
ag20
ag21
ag21
ag21
ag20
ag21
ag20
ag21
aa(lp916
g20
ag21
ag21
ag20
ag21
ag20
ag20
ag20
ag21
ag21
ag20
ag21
ag20
ag21
ag21
ag20
ag20
ag20
ag21
ag21
ag20
aa(lp917
g20
ag21
ag21
ag20
ag21
ag21
ag21
ag21
ag20
ag20
ag21
ag21
ag21
ag20
ag21
ag21
ag20
ag21
ag21
ag21
ag20
aa(lp918
g20
ag21
ag20
ag21
ag20
ag21
ag20
ag21
ag21
ag21
ag20
ag21
ag20
ag20
ag20
ag21
ag21
ag21
ag20
ag21
ag21
aa(lp919
g20
ag21
ag20
ag20
ag20
ag20
ag21
ag20
ag21
ag21
ag20
ag21
ag20
ag20
ag20
ag21
ag21
ag21
ag20
ag21
ag20
aa(lp920
g20
ag21
ag20
ag21
ag21
ag21
ag20
ag21
ag21
ag20
ag20
ag21
ag20
ag20
ag20
ag21
ag20
ag20
ag20
ag21
ag21
aa(lp921
g20
ag21
ag21
ag20
ag20
ag21
ag21
ag20
ag20
ag21
ag21
ag20
ag21
ag20
ag20
ag21
ag20
ag21
ag21
ag21
ag20
aa(lp922
g20
ag21
ag20
ag20
ag21
ag21
ag20
ag20
ag20
ag21
ag21
ag21
ag20
ag21
ag21
ag20
ag20
ag20
ag21
ag20
ag20
aa(lp923
g20
ag21
ag21
ag21
ag21
ag21
ag21
ag21
ag20
ag21
ag20
ag20
ag21
ag21
ag21
ag20
ag21
ag20
ag21
ag21
ag20
aa(lp924
g20
ag21
ag21
ag21
ag21
ag21
ag20
ag21
ag20
ag21
ag20
ag20
ag20
ag20
ag21
ag21
ag20
ag20
ag21
ag21
ag20
aa(lp925
g20
ag21
ag20
ag21
ag21
ag20
ag20
ag20
ag21
ag20
ag21
ag21
ag21
ag20
ag21
ag21
ag20
ag20
ag20
ag20
ag21
aa(lp926
g20
ag21
ag21
ag21
ag20
ag20
ag20
ag20
ag20
ag20
ag21
ag20
ag21
ag21
ag21
ag20
ag20
ag20
ag21
ag20
ag20
aa(lp927
g20
ag21
ag20
ag20
ag21
ag20
ag20
ag21
ag21
ag21
ag21
ag20
ag20
ag21
ag21
ag20
ag20
ag21
ag20
ag21
ag21
aa(lp928
g20
ag21
ag20
ag20
ag21
ag20
ag20
ag20
ag21
ag20
ag20
ag20
ag21
ag21
ag20
ag21
ag20
ag20
ag21
ag21
ag20
aa(lp929
g20
ag21
ag20
ag20
ag21
ag21
ag20
ag21
ag20
ag20
ag21
ag21
ag20
ag21
ag21
ag20
ag21
ag21
ag20
ag21
ag21
aa(lp930
g20
ag21
ag21
ag21
ag20
ag21
ag21
ag20
ag20
ag20
ag20
ag20
ag20
ag20
ag21
ag21
ag20
ag21
ag20
ag20
ag20
aa(lp931
g20
ag21
ag20
ag20
ag21
ag21
ag21
ag21
ag20
ag20
ag20
ag21
ag21
ag21
ag20
ag20
ag20
ag20
ag21
ag21
ag21
aa(lp932
g20
ag21
ag21
ag20
ag20
ag21
ag20
ag21
ag21
ag21
ag21
ag21
ag20
ag20
ag21
ag20
ag20
ag20
ag20
ag21
ag20
aa(lp933
g20
ag21
ag20
ag20
ag21
ag20
ag20
ag21
ag21
ag21
ag20
ag21
ag20
ag20
ag21
ag20
ag20
ag21
ag20
ag21
ag21
aa(lp934
g20
ag21
ag21
ag20
ag20
ag20
ag21
ag20
ag21
ag21
ag20
ag21
ag20
ag21
ag21
ag20
ag21
ag21
ag21
ag20
ag20
aa(lp935
g20
ag21
ag20
ag21
ag21
ag21
ag21
ag21
ag21
ag21
ag20
ag21
ag20
ag20
ag20
ag21
ag21
ag21
ag21
ag21
ag21
aa(lp936
g20
ag21
ag20
ag20
ag21
ag20
ag21
ag20
ag20
ag21
ag20
ag20
ag21
ag21
ag21
ag21
ag20
ag20
ag20
ag20
ag20
aa(lp937
g20
ag21
ag20
ag21
ag21
ag21
ag21
ag21
ag20
ag21
ag20
ag21
ag20
ag20
ag20
ag20
ag21
ag21
ag20
ag21
ag21
aa(lp938
g20
ag21
ag20
ag21
ag20
ag21
ag20
ag20
ag20
ag21
ag20
ag21
ag20
ag20
ag21
ag21
ag20
ag21
ag20
ag20
ag21
aa(lp939
g20
ag21
ag20
ag20
ag21
ag20
ag21
ag20
ag21
ag21
ag20
ag20
ag20
ag20
ag20
ag21
ag21
ag21
ag20
ag21
ag20
aa(lp940
g20
ag21
ag20
ag21
ag21
ag21
ag20
ag20
ag21
ag21
ag21
ag21
ag21
ag20
ag20
ag21
ag21
ag20
ag20
ag20
ag21
aa(lp941
g20
ag21
ag20
ag21
ag21
ag20
ag20
ag20
ag21
ag20
ag21
ag20
ag21
ag20
ag21
ag20
ag21
ag20
ag21
ag20
ag20
aa(lp942
g20
ag21
ag20
ag21
ag21
ag20
ag21
ag21
ag20
ag20
ag20
ag21
ag21
ag20
ag21
ag21
ag21
ag21
ag20
ag20
ag20
aa(lp943
g20
ag21
ag21
ag20
ag21
ag20
ag21
ag21
ag21
ag21
ag21
ag21
ag20
ag20
ag20
ag21
ag21
ag21
ag21
ag20
ag20
aa(lp944
g20
ag21
ag20
ag21
ag21
ag21
ag20
ag20
ag21
ag20
ag21
ag21
ag21
ag20
ag20
ag21
ag20
ag21
ag21
ag20
ag21
aa(lp945
g20
ag21
ag20
ag21
ag21
ag20
ag20
ag21
ag21
ag21
ag21
ag21
ag21
ag20
ag21
ag20
ag21
ag21
ag20
ag20
ag21
aa(lp946
g20
ag21
ag21
ag20
ag21
ag20
ag21
ag21
ag20
ag20
ag21
ag20
ag21
ag20
ag21
ag20
ag20
ag21
ag21
ag21
ag20
aa(lp947
g20
ag21
ag21
ag20
ag20
ag20
ag20
ag20
ag20
ag21
ag20
ag20
ag20
ag20
ag21
ag21
ag20
ag21
ag20
ag20
ag20
aa(lp948
g20
ag21
ag20
ag20
ag21
ag20
ag21
ag21
ag20
ag20
ag21
ag21
ag20
ag21
ag21
ag21
ag20
ag20
ag21
ag21
ag20
aa(lp949
g20
ag21
ag20
ag21
ag20
ag21
ag21
ag21
ag20
ag21
ag20
ag21
ag21
ag20
ag21
ag20
ag21
ag21
ag20
ag20
ag21
aa(lp950
g20
ag21
ag20
ag21
ag20
ag20
ag21
ag21
ag20
ag21
ag20
ag20
ag21
ag20
ag21
ag20
ag20
ag21
ag20
ag20
ag20
aa(lp951
g20
ag21
ag20
ag20
ag21
ag20
ag20
ag21
ag21
ag20
ag20
ag21
ag20
ag21
ag21
ag20
ag20
ag21
ag21
ag21
ag21
aa(lp952
g20
ag21
ag20
ag20
ag21
ag21
ag20
ag20
ag21
ag20
ag20
ag21
ag20
ag20
ag21
ag21
ag20
ag20
ag20
ag20
ag21
aa(lp953
g20
ag21
ag20
ag20
ag21
ag21
ag20
ag21
ag20
ag21
ag20
ag21
ag21
ag20
ag20
ag21
ag21
ag21
ag21
ag21
ag21
aa(lp954
g20
ag21
ag20
ag21
ag21
ag20
ag21
ag20
ag21
ag21
ag21
ag21
ag20
ag21
ag20
ag20
ag20
ag20
ag20
ag21
ag20
aa(lp955
g20
ag21
ag20
ag20
ag21
ag21
ag21
ag21
ag21
ag21
ag20
ag21
ag20
ag20
ag20
ag21
ag21
ag20
ag21
ag20
ag21
aa(lp956
g20
ag21
ag21
ag21
ag21
ag21
ag20
ag20
ag21
ag20
ag20
ag20
ag21
ag20
ag20
ag21
ag20
ag21
ag20
ag20
ag20
aa(lp957
g20
ag21
ag20
ag20
ag20
ag21
ag21
ag21
ag21
ag20
ag20
ag20
ag20
ag21
ag20
ag21
ag21
ag21
ag20
ag20
ag21
aa(lp958
g20
ag21
ag20
ag20
ag20
ag21
ag21
ag20
ag21
ag20
ag21
ag20
ag20
ag21
ag21
ag21
ag21
ag21
ag21
ag20
ag21
aa(lp959
g20
ag21
ag20
ag20
ag21
ag20
ag21
ag21
ag20
ag21
ag20
ag21
ag20
ag21
ag20
ag20
ag21
ag21
ag21
ag21
ag21
aa(lp960
g20
ag21
ag21
ag20
ag21
ag21
ag21
ag21
ag20
ag20
ag20
ag21
ag21
ag21
ag21
ag20
ag21
ag20
ag21
ag21
ag21
aa(lp961
g20
ag21
ag20
ag21
ag21
ag21
ag21
ag21
ag21
ag21
ag21
ag21
ag20
ag21
ag21
ag20
ag21
ag20
ag20
ag20
ag21
aa(lp962
g20
ag21
ag20
ag21
ag21
ag21
ag21
ag20
ag21
ag20
ag20
ag20
ag21
ag21
ag21
ag21
ag20
ag20
ag20
ag21
ag20
aa(lp963
g20
ag21
ag20
ag21
ag21
ag21
ag21
ag20
ag20
ag21
ag21
ag21
ag20
ag20
ag20
ag21
ag21
ag21
ag20
ag21
ag20
aa(lp964
g20
ag21
ag20
ag20
ag20
ag21
ag21
ag20
ag21
ag21
ag21
ag21
ag20
ag20
ag21
ag20
ag21
ag21
ag20
ag20
ag21
aa(lp965
g20
ag21
ag20
ag20
ag21
ag21
ag20
ag21
ag21
ag21
ag21
ag20
ag21
ag21
ag21
ag20
ag21
ag20
ag21
ag20
ag21
aa(lp966
g20
ag21
ag20
ag20
ag21
ag21
ag21
ag20
ag21
ag21
ag21
ag20
ag20
ag21
ag20
ag21
ag20
ag20
ag20
ag20
ag21
aa(lp967
g20
ag21
ag20
ag20
ag21
ag20
ag20
ag20
ag21
ag20
ag21
ag20
ag21
ag20
ag21
ag21
ag20
ag21
ag20
ag21
ag20
aa(lp968
g20
ag21
ag20
ag20
ag21
ag20
ag20
ag20
ag21
ag20
ag21
ag20
ag21
ag21
ag21
ag21
ag20
ag20
ag21
ag20
ag21
aa(lp969
g20
ag21
ag20
ag21
ag21
ag21
ag20
ag20
ag20
ag20
ag21
ag20
ag21
ag21
ag20
ag20
ag21
ag21
ag21
ag20
ag20
aa(lp970
g20
ag21
ag20
ag20
ag21
ag21
ag20
ag20
ag21
ag20
ag21
ag20
ag21
ag21
ag21
ag21
ag21
ag21
ag21
ag20
ag21
aa(lp971
g20
ag21
ag20
ag20
ag20
ag20
ag20
ag21
ag21
ag21
ag20
ag21
ag21
ag20
ag21
ag20
ag21
ag20
ag21
ag21
ag20
aa(lp972
g20
ag21
ag20
ag20
ag21
ag21
ag21
ag20
ag21
ag21
ag21
ag20
ag21
ag21
ag20
ag21
ag21
ag21
ag20
ag20
ag21
aa(lp973
g20
ag21
ag21
ag21
ag20
ag21
ag21
ag21
ag21
ag20
ag20
ag21
ag21
ag20
ag20
ag20
ag21
ag21
ag21
ag20
ag20
aa(lp974
g20
ag21
ag21
ag20
ag20
ag21
ag20
ag20
ag21
ag20
ag21
ag21
ag20
ag20
ag20
ag21
ag20
ag20
ag20
ag21
ag20
aa(lp975
g20
ag21
ag20
ag20
ag21
ag20
ag21
ag21
ag20
ag20
ag21
ag21
ag21
ag20
ag20
ag20
ag20
ag20
ag21
ag21
ag20
aa(lp976
g20
ag21
ag21
ag20
ag21
ag21
ag21
ag20
ag21
ag20
ag21
ag20
ag20
ag21
ag21
ag21
ag21
ag20
ag21
ag20
ag21
aa(lp977
g20
ag21
ag20
ag20
ag21
ag21
ag20
ag21
ag21
ag21
ag21
ag20
ag21
ag21
ag20
ag20
ag20
ag20
ag20
ag20
ag21
aa(lp978
g20
ag21
ag21
ag21
ag20
ag21
ag21
ag21
ag21
ag21
ag21
ag21
ag21
ag20
ag20
ag20
ag20
ag21
ag20
ag21
ag20
aa(lp979
g20
ag21
ag21
ag20
ag21
ag21
ag21
ag20
ag20
ag20
ag21
ag20
ag21
ag20
ag21
ag21
ag20
ag21
ag20
ag21
ag20
aa(lp980
g20
ag21
ag20
ag21
ag20
ag21
ag20
ag21
ag21
ag20
ag21
ag20
ag20
ag21
ag21
ag20
ag21
ag21
ag20
ag20
ag21
aa(lp981
g20
ag21
ag20
ag21
ag21
ag21
ag21
ag20
ag21
ag20
ag21
ag20
ag21
ag21
ag21
ag21
ag20
ag21
ag21
ag20
ag21
aa(lp982
g20
ag21
ag20
ag21
ag21
ag21
ag20
ag21
ag20
ag20
ag21
ag21
ag20
ag20
ag21
ag20
ag21
ag20
ag21
ag20
ag21
aa(lp983
g20
ag21
ag20
ag20
ag20
ag20
ag21
ag21
ag21
ag20
ag21
ag20
ag20
ag20
ag20
ag20
ag21
ag20
ag20
ag21
ag20
aa(lp984
g20
ag21
ag20
ag21
ag21
ag20
ag21
ag20
ag20
ag21
ag20
ag20
ag20
ag21
ag20
ag20
ag21
ag21
ag21
ag20
ag20
aa(lp985
g20
ag21
ag21
ag20
ag20
ag21
ag20
ag21
ag21
ag20
ag21
ag21
ag20
ag21
ag20
ag21
ag21
ag21
ag20
ag20
ag20
aa(lp986
g20
ag21
ag20
ag20
ag21
ag20
ag20
ag20
ag21
ag21
ag21
ag21
ag21
ag20
ag20
ag21
ag21
ag20
ag20
ag21
ag21
aa(lp987
g20
ag21
ag20
ag21
ag20
ag21
ag20
ag20
ag21
ag21
ag21
ag21
ag21
ag20
ag21
ag20
ag21
ag21
ag21
ag20
ag21
aa(lp988
g20
ag21
ag21
ag21
ag21
ag21
ag20
ag21
ag20
ag21
ag21
ag20
ag21
ag20
ag21
ag21
ag21
ag21
ag21
ag21
ag20
aa(lp989
g20
ag21
ag20
ag21
ag20
ag21
ag21
ag20
ag20
ag21
ag20
ag21
ag20
ag20
ag20
ag20
ag21
ag21
ag21
ag20
ag21
aa(lp990
g20
ag21
ag20
ag20
ag21
ag21
ag21
ag20
ag21
ag21
ag21
ag20
ag20
ag20
ag20
ag21
ag21
ag21
ag20
ag20
ag20
aa(lp991
g20
ag21
ag20
ag20
ag21
ag20
ag21
ag21
ag21
ag21
ag21
ag20
ag20
ag21
ag20
ag21
ag20
ag20
ag20
ag20
ag21
aa(lp992
g20
ag21
ag20
ag20
ag21
ag20
ag21
ag20
ag21
ag20
ag21
ag20
ag21
ag21
ag20
ag20
ag20
ag20
ag21
ag21
ag20
aa(lp993
g20
ag21
ag20
ag21
ag21
ag20
ag21
ag21
ag21
ag20
ag20
ag20
ag21
ag21
ag20
ag20
ag20
ag20
ag20
ag21
ag21
aa(lp994
g20
ag21
ag20
ag21
ag20
ag21
ag21
ag20
ag20
ag21
ag20
ag21
ag20
ag21
ag20
ag20
ag20
ag21
ag21
ag20
ag21
aa(lp995
g20
ag21
ag20
ag20
ag21
ag20
ag21
ag20
ag20
ag21
ag21
ag21
ag20
ag21
ag21
ag21
ag20
ag21
ag20
ag20
ag20
aa(lp996
g20
ag21
ag20
ag21
ag20
ag21
ag21
ag20
ag20
ag21
ag21
ag21
ag21
ag21
ag21
ag21
ag21
ag21
ag20
ag20
ag20
aa(lp997
g20
ag21
ag20
ag20
ag20
ag20
ag20
ag21
ag21
ag21
ag20
ag21
ag21
ag21
ag20
ag20
ag21
ag20
ag20
ag20
ag20
aa(lp998
g20
ag21
ag20
ag21
ag20
ag21
ag21
ag21
ag21
ag20
ag20
ag20
ag20
ag20
ag21
ag21
ag21
ag21
ag20
ag21
ag21
aa(lp999
g20
ag21
ag20
ag20
ag21
ag20
ag20
ag20
ag21
ag21
ag20
ag20
ag20
ag20
ag20
ag20
ag21
ag20
ag20
ag21
ag20
aa(lp1000
g20
ag21
ag21
ag20
ag20
ag21
ag21
ag20
ag20
ag20
ag20
ag21
ag20
ag20
ag21
ag20
ag21
ag21
ag20
ag21
ag20
aa(lp1001
g20
ag21
ag20
ag20
ag20
ag21
ag21
ag20
ag21
ag21
ag21
ag20
ag20
ag20
ag21
ag20
ag20
ag21
ag21
ag20
ag21
aa(lp1002
g20
ag21
ag20
ag21
ag21
ag20
ag21
ag20
ag21
ag20
ag20
ag21
ag21
ag20
ag21
ag21
ag20
ag20
ag20
ag21
ag21
aa(lp1003
g20
ag21
ag20
ag20
ag20
ag21
ag21
ag20
ag21
ag21
ag20
ag20
ag20
ag21
ag21
ag21
ag21
ag21
ag20
ag20
ag21
aa(lp1004
g20
ag21
ag21
ag21
ag21
ag20
ag20
ag20
ag21
ag20
ag20
ag21
ag21
ag20
ag20
ag21
ag21
ag21
ag20
ag21
ag20
aa(lp1005
g20
ag21
ag20
ag21
ag21
ag20
ag20
ag21
ag20
ag21
ag20
ag20
ag20
ag21
ag20
ag21
ag21
ag21
ag21
ag21
ag20
aa(lp1006
g20
ag21
ag20
ag20
ag20
ag21
ag20
ag21
ag21
ag20
ag21
ag20
ag20
ag20
ag20
ag20
ag20
ag21
ag21
ag20
ag20
aa(lp1007
g20
ag21
ag21
ag20
ag21
ag21
ag21
ag20
ag21
ag21
ag20
ag20
ag20
ag21
ag21
ag21
ag20
ag20
ag21
ag20
ag21
aa(lp1008
g20
ag21
ag20
ag21
ag21
ag20
ag21
ag21
ag20
ag20
ag20
ag21
ag20
ag20
ag21
ag20
ag20
ag20
ag20
ag20
ag21
aa(lp1009
g20
ag21
ag21
ag20
ag21
ag20
ag21
ag20
ag21
ag21
ag20
ag20
ag20
ag21
ag21
ag21
ag20
ag20
ag20
ag21
ag21
aa(lp1010
g20
ag21
ag21
ag20
ag20
ag20
ag21
ag20
ag20
ag21
ag20
ag20
ag21
ag21
ag20
ag21
ag21
ag20
ag21
ag21
ag20
aa(lp1011
g20
ag21
ag20
ag21
ag21
ag20
ag21
ag21
ag21
ag21
ag21
ag21
ag21
ag20
ag21
ag20
ag21
ag21
ag20
ag21
ag21
aa(lp1012
g20
ag21
ag20
ag21
ag21
ag21
ag21
ag21
ag21
ag21
ag21
ag20
ag20
ag21
ag21
ag21
ag20
ag21
ag20
ag20
ag21
aa(lp1013
g20
ag21
ag20
ag21
ag20
ag21
ag21
ag20
ag20
ag20
ag21
ag21
ag20
ag21
ag21
ag20
ag20
ag21
ag21
ag20
ag21
aa(lp1014
g20
ag21
ag20
ag20
ag20
ag21
ag20
ag21
ag20
ag21
ag21
ag21
ag20
ag20
ag21
ag20
ag21
ag21
ag20
ag21
ag21
aa(lp1015
g20
ag21
ag20
ag20
ag21
ag20
ag21
ag20
ag20
ag21
ag20
ag21
ag20
ag20
ag21
ag21
ag21
ag20
ag20
ag20
ag21
aa(lp1016
g20
ag21
ag20
ag21
ag21
ag21
ag20
ag20
ag20
ag20
ag20
ag21
ag20
ag21
ag20
ag21
ag20
ag21
ag21
ag21
ag20
aa(lp1017
g20
ag21
ag20
ag21
ag21
ag20
ag20
ag21
ag20
ag20
ag21
ag21
ag21
ag21
ag21
ag20
ag20
ag21
ag21
ag21
ag20
aa(lp1018
g20
ag21
ag20
ag20
ag20
ag21
ag20
ag21
ag20
ag20
ag21
ag20
ag20
ag21
ag20
ag21
ag20
ag20
ag20
ag21
ag20
aa(lp1019
g20
ag21
ag20
ag20
ag21
ag21
ag21
ag21
ag20
ag21
ag21
ag21
ag21
ag21
ag21
ag20
ag21
ag21
ag20
ag21
ag21
aa(lp1020
g20
ag21
ag21
ag21
ag20
ag20
ag20
ag21
ag20
ag21
ag21
ag21
ag21
ag20
ag20
ag20
ag21
ag20
ag21
ag20
ag20
aa(lp1021
g20
ag21
ag20
ag20
ag21
ag20
ag21
ag21
ag21
ag20
ag20
ag20
ag20
ag21
ag20
ag20
ag20
ag20
ag20
ag21
ag21
aa(lp1022
g20
ag21
ag21
ag21
ag21
ag20
ag20
ag21
ag20
ag20
ag20
ag21
ag20
ag21
ag21
ag20
ag21
ag20
ag20
ag21
ag21
aa(lp1023
g20
ag21
ag21
ag21
ag21
ag20
ag21
ag20
ag20
ag20
ag20
ag21
ag20
ag21
ag21
ag21
ag20
ag20
ag21
ag21
ag20
aa(lp1024
g20
ag21
ag21
ag21
ag21
ag20
ag21
ag21
ag21
ag20
ag21
ag20
ag21
ag21
ag21
ag20
ag20
ag20
ag21
ag21
ag21
aa(lp1025
g20
ag21
ag21
ag20
ag20
ag21
ag21
ag20
ag21
ag21
ag21
ag20
ag20
ag20
ag21
ag20
ag20
ag21
ag21
ag21
ag20
aa(lp1026
g20
ag21
ag20
ag20
ag20
ag21
ag20
ag21
ag21
ag21
ag20
ag20
ag21
ag20
ag21
ag20
ag20
ag21
ag20
ag20
ag20
aa(lp1027
g20
ag21
ag20
ag20
ag21
ag20
ag20
ag20
ag21
ag21
ag20
ag20
ag21
ag20
ag21
ag20
ag20
ag20
ag20
ag21
ag20
aa(lp1028
g20
ag21
ag20
ag21
ag20
ag21
ag20
ag20
ag21
ag21
ag20
ag21
ag21
ag20
ag21
ag20
ag21
ag21
ag20
ag20
ag21
aasg31
S'XC'
p1029
sg33
(iid3_node
node
p1030
(dp1031
g2
(iid3_node
node
p1032
(dp1033
g2
(iid3_node
node
p1034
(dp1035
g2
(iid3_node
node
p1036
(dp1037
g2
(iid3_node
node
p1038
(dp1039
g15
I0
sg16
I01
sbsg17
(lp1040
g887
ag898
ag957
ag958
ag964
ag1001
ag1003
ag1006
ag1014
ag1018
ag1026
asg31
g32
sg33
(iid3_node
node
p1041
(dp1042
g2
(iid3_node
node
p1043
(dp1044
g2
(iid3_node
node
p1045
(dp1046
g15
I1
sg16
I01
sbsg17
(lp1047
g1006
ag1014
ag1018
ag1026
asg31
g41
sg33
(iid3_node
node
p1048
(dp1049
g2
(iid3_node
node
p1050
(dp1051
g2
(iid3_node
node
p1052
(dp1053
g15
I0
sg16
I01
sbsg17
(lp1054
g1014
asg31
g57
sg33
(iid3_node
node
p1055
(dp1056
g15
I1
sg16
I01
sbsg54
(lp1057
g1018
asbsg17
(lp1058
g1006
ag1026
asg31
g62
sg33
(iid3_node
node
p1059
(dp1060
g15
I0
sg16
I01
sbsg54
(lp1061
g1014
ag1018
asbsg54
(lp1062
g898
asbsg17
(lp1063
g887
ag957
ag958
ag964
ag1001
ag1003
asg31
g68
sg33
(iid3_node
node
p1064
(dp1065
g15
I1
sg16
I01
sbsg54
(lp1066
g898
ag1006
ag1014
ag1018
ag1026
asbsg54
(lp1067
g903
ag907
ag919
ag971
ag983
ag997
asbsg17
(lp1068
g885
ag893
ag897
ag900
ag911
ag912
ag914
ag915
ag922
ag927
ag928
ag929
ag931
ag933
ag936
ag939
ag948
ag951
ag952
ag953
ag955
ag959
ag965
ag966
ag967
ag968
ag970
ag972
ag975
ag977
ag986
ag990
ag991
ag992
ag995
ag999
ag1015
ag1019
ag1021
ag1027
asg31
g101
sg33
(iid3_node
node
p1069
(dp1070
g2
(iid3_node
node
p1071
(dp1072
g2
(iid3_node
node
p1073
(dp1074
g2
(iid3_node
node
p1075
(dp1076
g2
(iid3_node
node
p1077
(dp1078
g2
(iid3_node
node
p1079
(dp1080
g15
I0
sg16
I01
sbsg17
(lp1081
g967
ag968
asg31
g116
sg33
(iid3_node
node
p1082
(dp1083
g2
(iid3_node
node
p1084
(dp1085
g15
I0
sg16
I01
sbsg17
(lp1086
g968
asg31
S'XO'
p1087
sg33
(iid3_node
node
p1088
(dp1089
g15
I1
sg16
I01
sbsg54
(lp1090
g967
asbsg54
(lp1091
g897
ag928
asbsg17
(lp1092
g915
ag986
ag999
ag1027
asg31
g57
sg33
(iid3_node
node
p1093
(dp1094
g2
(iid3_node
node
p1095
(dp1096
g2
(iid3_node
node
p1097
(dp1098
g15
I0
sg16
I01
sbsg17
(lp1099
g915
asg31
g129
sg33
(iid3_node
node
p1100
(dp1101
g15
I1
sg16
I01
sbsg54
(lp1102
g999
ag1027
asbsg17
(lp1103
g986
asg31
g116
sg33
(iid3_node
node
p1104
(dp1105
g15
I1
sg16
I01
sbsg54
(lp1106
g915
ag999
ag1027
asbsg54
(lp1107
g897
ag928
ag967
ag968
asbsg17
(lp1108
g893
ag927
ag933
ag951
asg31
g41
sg33
(iid3_node
node
p1109
(dp1110
g2
(iid3_node
node
p1111
(dp1112
g2
(iid3_node
node
p1113
(dp1114
g15
I1
sg16
I01
sbsg17
(lp1115
g893
asg31
g116
sg33
(iid3_node
node
p1116
(dp1117
g15
I0
sg16
I01
sbsg54
(lp1118
g951
asbsg17
(lp1119
g927
ag933
asg31
g57
sg33
(iid3_node
node
p1120
(dp1121
g15
I1
sg16
I01
sbsg54
(lp1122
g893
ag951
asbsg54
(lp1123
g897
ag915
ag928
ag967
ag968
ag986
ag999
ag1027
asbsg17
(lp1124
g885
ag911
ag914
ag936
ag939
ag948
ag959
ag975
ag991
ag992
ag995
ag1015
ag1021
asg31
g68
sg33
(iid3_node
node
p1125
(dp1126
g2
(iid3_node
node
p1127
(dp1128
g2
(iid3_node
node
p1129
(dp1130
g2
(iid3_node
node
p1131
(dp1132
g2
(iid3_node
node
p1133
(dp1134
g15
I0
sg16
I01
sbsg17
(lp1135
g1015
asg31
g129
sg33
(iid3_node
node
p1136
(dp1137
g15
I1
sg16
I01
sbsg54
(lp1138
g936
asbsg17
(lp1139
g995
asg31
g116
sg33
(iid3_node
node
p1140
(dp1141
g15
I0
sg16
I01
sbsg54
(lp1142
g936
ag1015
asbsg17
(lp1143
g885
ag939
ag992
asg31
g62
sg33
(iid3_node
node
p1144
(dp1145
g2
(iid3_node
node
p1146
(dp1147
g2
(iid3_node
node
p1148
(dp1149
g15
I1
sg16
I01
sbsg17
(lp1150
g992
asg31
g135
sg33
(iid3_node
node
p1151
(dp1152
g15
I0
sg16
I01
sbsg54
(lp1153
g885
asbsg17
(lp1154
g939
asg31
g57
sg33
(iid3_node
node
p1155
(dp1156
g15
I0
sg16
I01
sbsg54
(lp1157
g885
ag992
asbsg54
(lp1158
g936
ag995
ag1015
asbsg17
(lp1159
g911
ag914
ag948
ag959
ag975
ag991
ag1021
asg31
g41
sg33
(iid3_node
node
p1160
(dp1161
g2
(iid3_node
node
p1162
(dp1163
g2
(iid3_node
node
p1164
(dp1165
g15
I0
sg16
I01
sbsg17
(lp1166
g911
ag914
ag959
asg31
g57
sg33
(iid3_node
node
p1167
(dp1168
g2
(iid3_node
node
p1169
(dp1170
g2
(iid3_node
node
p1171
(dp1172
g15
I0
sg16
I01
sbsg17
(lp1173
g959
asg31
g129
sg33
(iid3_node
node
p1174
(dp1175
g15
I1
sg16
I01
sbsg54
(lp1176
g911
asbsg17
(lp1177
g914
asg31
g116
sg33
(iid3_node
node
p1178
(dp1179
g15
I1
sg16
I01
sbsg54
(lp1180
g911
ag959
asbsg54
(lp1181
g948
ag975
asbsg17
(lp1182
g991
ag1021
asg31
g62
sg33
(iid3_node
node
p1183
(dp1184
g15
I1
sg16
I01
sbsg54
(lp1185
g911
ag914
ag948
ag959
ag975
asbsg54
(lp1186
g885
ag936
ag939
ag992
ag995
ag1015
asbsg54
(lp1187
g893
ag897
ag915
ag927
ag928
ag933
ag951
ag967
ag968
ag986
ag999
ag1027
asbsg17
(lp1188
g900
ag912
ag922
ag929
ag931
ag952
ag953
ag955
ag965
ag966
ag970
ag972
ag977
ag990
ag1019
asg31
g32
sg33
(iid3_node
node
p1189
(dp1190
g2
(iid3_node
node
p1191
(dp1192
g2
(iid3_node
node
p1193
(dp1194
g2
(iid3_node
node
p1195
(dp1196
g15
I0
sg16
I01
sbsg17
(lp1197
g952
ag970
asg31
g62
sg33
(iid3_node
node
p1198
(dp1199
g15
I1
sg16
I01
sbsg54
(lp1200
g922
asbsg17
(lp1201
g912
ag929
ag953
ag965
ag977
asg31
g41
sg33
(iid3_node
node
p1202
(dp1203
g15
I1
sg16
I01
sbsg54
(lp1204
g922
ag952
ag970
asbsg17
(lp1205
g900
ag931
ag955
ag966
ag972
ag990
ag1019
asg31
g68
sg33
(iid3_node
node
p1206
(dp1207
g2
(iid3_node
node
p1208
(dp1209
g2
(iid3_node
node
p1210
(dp1211
g15
I0
sg16
I01
sbsg17
(lp1212
g966
ag972
ag990
asg31
g57
sg33
(iid3_node
node
p1213
(dp1214
g2
(iid3_node
node
p1215
(dp1216
g2
(iid3_node
node
p1217
(dp1218
g15
I0
sg16
I01
sbsg17
(lp1219
g966
asg31
g1087
sg33
(iid3_node
node
p1220
(dp1221
g15
I1
sg16
I01
sbsg54
(lp1222
g990
asbsg17
(lp1223
g972
asg31
g135
sg33
(iid3_node
node
p1224
(dp1225
g15
I1
sg16
I01
sbsg54
(lp1226
g966
ag990
asbsg54
(lp1227
g900
asbsg17
(lp1228
g931
ag955
ag1019
asg31
g41
sg33
(iid3_node
node
p1229
(dp1230
g15
I1
sg16
I01
sbsg54
(lp1231
g900
ag966
ag972
ag990
asbsg54
(lp1232
g912
ag922
ag929
ag952
ag953
ag965
ag970
ag977
asbsg54
(lp1233
g885
ag893
ag897
ag911
ag914
ag915
ag927
ag928
ag933
ag936
ag939
ag948
ag951
ag959
ag967
ag968
ag975
ag986
ag991
ag992
ag995
ag999
ag1015
ag1021
ag1027
asbsg54
(lp1234
g887
ag898
ag903
ag907
ag919
ag957
ag958
ag964
ag971
ag983
ag997
ag1001
ag1003
ag1006
ag1014
ag1018
ag1026
asbsg17
(lp1235
g881
ag882
ag883
ag884
ag889
ag890
ag892
ag896
ag902
ag904
ag905
ag906
ag909
ag910
ag913
ag918
ag920
ag925
ag935
ag937
ag938
ag940
ag941
ag942
ag944
ag945
ag949
ag950
ag954
ag961
ag962
ag963
ag969
ag980
ag981
ag982
ag984
ag987
ag989
ag993
ag994
ag996
ag998
ag1002
ag1005
ag1008
ag1011
ag1012
ag1013
ag1016
ag1017
ag1028
asg31
g272
sg33
(iid3_node
node
p1236
(dp1237
g2
(iid3_node
node
p1238
(dp1239
g2
(iid3_node
node
p1240
(dp1241
g15
I0
sg16
I01
sbsg17
(lp1242
g882
ag884
ag904
ag909
ag910
ag918
ag938
ag949
ag980
ag987
ag989
ag994
ag996
ag998
ag1013
ag1028
asg31
g32
sg33
(iid3_node
node
p1243
(dp1244
g2
(iid3_node
node
p1245
(dp1246
g15
I1
sg16
I01
sbsg17
(lp1247
g882
ag910
ag949
ag989
ag994
ag996
ag998
ag1013
asg31
g68
sg33
(iid3_node
node
p1248
(dp1249
g2
(iid3_node
node
p1250
(dp1251
g2
(iid3_node
node
p1252
(dp1253
g15
I1
sg16
I01
sbsg17
(lp1254
g989
ag994
ag996
asg31
g57
sg33
(iid3_node
node
p1255
(dp1256
g2
(iid3_node
node
p1257
(dp1258
g15
I1
sg16
I01
sbsg17
(lp1259
g996
asg31
g116
sg33
(iid3_node
node
p1260
(dp1261
g15
I0
sg16
I01
sbsg54
(lp1262
g989
ag994
asbsg54
(lp1263
g910
ag1013
asbsg17
(lp1264
g882
ag949
ag998
asg31
g41
sg33
(iid3_node
node
p1265
(dp1266
g15
I1
sg16
I01
sbsg54
(lp1267
g910
ag989
ag994
ag996
ag1013
asbsg54
(lp1268
g884
ag904
ag909
ag918
ag938
ag980
ag987
ag1028
asbsg54
(lp1269
g892
ag950
asbsg17
(lp1270
g881
ag883
ag889
ag890
ag896
ag902
ag905
ag906
ag913
ag920
ag925
ag935
ag937
ag940
ag941
ag942
ag944
ag945
ag954
ag961
ag962
ag963
ag969
ag981
ag982
ag984
ag993
ag1002
ag1005
ag1008
ag1011
ag1012
ag1016
ag1017
asg31
g101
sg33
(iid3_node
node
p1271
(dp1272
g2
(iid3_node
node
p1273
(dp1274
g2
(iid3_node
node
p1275
(dp1276
g2
(iid3_node
node
p1277
(dp1278
g2
(iid3_node
node
p1279
(dp1280
g15
I0
sg16
I01
sbsg17
(lp1281
g925
asg31
g129
sg33
(iid3_node
node
p1282
(dp1283
g15
I1
sg16
I01
sbsg54
(lp1284
g941
asbsg17
(lp1285
g945
ag1005
ag1017
asg31
g41
sg33
(iid3_node
node
p1286
(dp1287
g2
(iid3_node
node
p1288
(dp1289
g15
I0
sg16
I01
sbsg17
(lp1290
g945
asg31
g62
sg33
(iid3_node
node
p1291
(dp1292
g15
I1
sg16
I01
sbsg54
(lp1293
g1005
ag1017
asbsg54
(lp1294
g925
ag941
asbsg17
(lp1295
g890
ag902
ag906
ag942
ag954
ag984
ag993
ag1002
ag1008
ag1011
asg31
g68
sg33
(iid3_node
node
p1296
(dp1297
g2
(iid3_node
node
p1298
(dp1299
g2
(iid3_node
node
p1300
(dp1301
g2
(iid3_node
node
p1302
(dp1303
g15
I1
sg16
I01
sbsg17
(lp1304
g984
asg31
g57
sg33
(iid3_node
node
p1305
(dp1306
g15
I0
sg16
I01
sbsg54
(lp1307
g902
asbsg17
(lp1308
g890
ag954
ag1002
asg31
g62
sg33
(iid3_node
node
p1309
(dp1310
g2
(iid3_node
node
p1311
(dp1312
g15
I1
sg16
I01
sbsg17
(lp1313
g890
ag954
asg31
g57
sg33
(iid3_node
node
p1314
(dp1315
g2
(iid3_node
node
p1316
(dp1317
g15
I1
sg16
I01
sbsg17
(lp1318
g954
asg31
g116
sg33
(iid3_node
node
p1319
(dp1320
g15
I0
sg16
I01
sbsg54
(lp1321
g890
asbsg54
(lp1322
g1002
asbsg54
(lp1323
g902
ag984
asbsg17
(lp1324
g906
ag942
ag993
ag1008
ag1011
asg31
g41
sg33
(iid3_node
node
p1325
(dp1326
g2
(iid3_node
node
p1327
(dp1328
g2
(iid3_node
node
p1329
(dp1330
g15
I1
sg16
I01
sbsg17
(lp1331
g942
asg31
g135
sg33
(iid3_node
node
p1332
(dp1333
g15
I0
sg16
I01
sbsg54
(lp1334
g1008
asbsg17
(lp1335
g906
ag993
ag1011
asg31
g62
sg33
(iid3_node
node
p1336
(dp1337
g15
I1
sg16
I01
sbsg54
(lp1338
g942
ag1008
asbsg54
(lp1339
g890
ag902
ag954
ag984
ag1002
asbsg54
(lp1340
g925
ag941
ag945
ag1005
ag1017
asbsg17
(lp1341
g881
ag883
ag889
ag896
ag905
ag913
ag920
ag935
ag937
ag940
ag944
ag961
ag962
ag963
ag969
ag981
ag982
ag1012
ag1016
asg31
g32
sg33
(iid3_node
node
p1342
(dp1343
g2
(iid3_node
node
p1344
(dp1345
g2
(iid3_node
node
p1346
(dp1347
g2
(iid3_node
node
p1348
(dp1349
g15
I0
sg16
I01
sbsg17
(lp1350
g896
ag940
ag944
asg31
g62
sg33
(iid3_node
node
p1351
(dp1352
g15
I1
sg16
I01
sbsg54
(lp1353
g883
ag969
ag1016
asbsg17
(lp1354
g889
ag920
ag982
asg31
g41
sg33
(iid3_node
node
p1355
(dp1356
g15
I1
sg16
I01
sbsg54
(lp1357
g883
ag896
ag940
ag944
ag969
ag1016
asbsg17
(lp1358
g881
ag905
ag913
ag935
ag937
ag961
ag962
ag963
ag981
ag1012
asg31
g68
sg33
(iid3_node
node
p1359
(dp1360
g2
(iid3_node
node
p1361
(dp1362
g2
(iid3_node
node
p1363
(dp1364
g2
(iid3_node
node
p1365
(dp1366
g2
(iid3_node
node
p1367
(dp1368
g15
I0
sg16
I01
sbsg17
(lp1369
g913
asg31
g129
sg33
(iid3_node
node
p1370
(dp1371
g15
I1
sg16
I01
sbsg54
(lp1372
g881
asbsg17
(lp1373
g963
asg31
g116
sg33
(iid3_node
node
p1374
(dp1375
g15
I0
sg16
I01
sbsg54
(lp1376
g881
ag913
asbsg17
(lp1377
g905
ag962
ag981
asg31
g62
sg33
(iid3_node
node
p1378
(dp1379
g2
(iid3_node
node
p1380
(dp1381
g2
(iid3_node
node
p1382
(dp1383
g15
I0
sg16
I01
sbsg17
(lp1384
g981
asg31
g116
sg33
(iid3_node
node
p1385
(dp1386
g15
I1
sg16
I01
sbsg54
(lp1387
g962
asbsg17
(lp1388
g905
asg31
g57
sg33
(iid3_node
node
p1389
(dp1390
g15
I1
sg16
I01
sbsg54
(lp1391
g962
ag981
asbsg54
(lp1392
g881
ag913
ag963
asbsg17
(lp1393
g935
ag937
ag961
ag1012
asg31
g41
sg33
(iid3_node
node
p1394
(dp1395
g15
I1
sg16
I01
sbsg54
(lp1396
g881
ag905
ag913
ag962
ag963
ag981
asbsg54
(lp1397
g883
ag889
ag896
ag920
ag940
ag944
ag969
ag982
ag1016
asbsg54
(lp1398
g890
ag902
ag906
ag925
ag941
ag942
ag945
ag954
ag984
ag993
ag1002
ag1005
ag1008
ag1011
ag1017
asbsg54
(lp1399
g882
ag884
ag892
ag904
ag909
ag910
ag918
ag938
ag949
ag950
ag980
ag987
ag989
ag994
ag996
ag998
ag1013
ag1028
asbsg54
(lp1400
g885
ag887
ag893
ag897
ag898
ag900
ag903
ag907
ag911
ag912
ag914
ag915
ag919
ag922
ag927
ag928
ag929
ag931
ag933
ag936
ag939
ag948
ag951
ag952
ag953
ag955
ag957
ag958
ag959
ag964
ag965
ag966
ag967
ag968
ag970
ag971
ag972
ag975
ag977
ag983
ag986
ag990
ag991
ag992
ag995
ag997
ag999
ag1001
ag1003
ag1006
ag1014
ag1015
ag1018
ag1019
ag1021
ag1026
ag1027
asbsg17
(lp1401
g886
ag888
ag891
ag894
ag895
ag899
ag901
ag908
ag916
ag917
ag921
ag923
ag924
ag926
ag930
ag932
ag934
ag943
ag946
ag947
ag956
ag960
ag973
ag974
ag976
ag978
ag979
ag985
ag988
ag1000
ag1004
ag1007
ag1009
ag1010
ag1020
ag1022
ag1023
ag1024
ag1025
asg31
g612
sg33
(iid3_node
node
p1402
(dp1403
g2
(iid3_node
node
p1404
(dp1405
g2
(iid3_node
node
p1406
(dp1407
g15
I0
sg16
I01
sbsg17
(lp1408
g916
ag917
ag943
ag946
ag960
ag976
ag979
ag1007
ag1009
asg31
g101
sg33
(iid3_node
node
p1409
(dp1410
g2
(iid3_node
node
p1411
(dp1412
g2
(iid3_node
node
p1413
(dp1414
g15
I0
sg16
I01
sbsg17
(lp1415
g943
ag946
ag1009
asg31
g68
sg33
(iid3_node
node
p1416
(dp1417
g2
(iid3_node
node
p1418
(dp1419
g15
I1
sg16
I01
sbsg17
(lp1420
g943
ag946
asg31
g41
sg33
(iid3_node
node
p1421
(dp1422
g15
I0
sg16
I01
sbsg54
(lp1423
g1009
asbsg54
(lp1424
g916
asbsg17
(lp1425
g917
ag960
ag976
ag979
ag1007
asg31
g32
sg33
(iid3_node
node
p1426
(dp1427
g2
(iid3_node
node
p1428
(dp1429
g2
(iid3_node
node
p1430
(dp1431
g15
I0
sg16
I01
sbsg17
(lp1432
g976
ag1007
asg31
g62
sg33
(iid3_node
node
p1433
(dp1434
g15
I1
sg16
I01
sbsg54
(lp1435
g979
asbsg17
(lp1436
g917
ag960
asg31
g41
sg33
(iid3_node
node
p1437
(dp1438
g2
(iid3_node
node
p1439
(dp1440
g15
I1
sg16
I01
sbsg17
(lp1441
g917
asg31
g116
sg33
(iid3_node
node
p1442
(dp1443
g15
I0
sg16
I01
sbsg54
(lp1444
g960
asbsg54
(lp1445
g976
ag979
ag1007
asbsg54
(lp1446
g916
ag943
ag946
ag1009
asbsg54
(lp1447
g891
ag921
ag932
ag934
ag947
ag974
ag985
ag1000
ag1010
ag1025
asbsg17
(lp1448
g886
ag888
ag894
ag895
ag899
ag901
ag908
ag923
ag924
ag926
ag930
ag956
ag973
ag978
ag988
ag1004
ag1020
ag1022
ag1023
ag1024
asg31
g272
sg33
(iid3_node
node
p1449
(dp1450
g2
(iid3_node
node
p1451
(dp1452
g15
I0
sg16
I01
sbsg17
(lp1453
g888
ag894
ag895
ag901
ag908
ag923
ag924
ag956
ag988
ag1004
ag1022
ag1023
ag1024
asg31
g101
sg33
(iid3_node
node
p1454
(dp1455
g2
(iid3_node
node
p1456
(dp1457
g2
(iid3_node
node
p1458
(dp1459
g2
(iid3_node
node
p1460
(dp1461
g15
I0
sg16
I01
sbsg17
(lp1462
g1022
asg31
g41
sg33
(iid3_node
node
p1463
(dp1464
g15
I1
sg16
I01
sbsg54
(lp1465
g888
ag1004
asbsg17
(lp1466
g895
ag1023
ag1024
asg31
g68
sg33
(iid3_node
node
p1467
(dp1468
g2
(iid3_node
node
p1469
(dp1470
g15
I0
sg16
I01
sbsg17
(lp1471
g895
ag1024
asg31
g41
sg33
(iid3_node
node
p1472
(dp1473
g2
(iid3_node
node
p1474
(dp1475
g15
I1
sg16
I01
sbsg17
(lp1476
g895
asg31
g57
sg33
(iid3_node
node
p1477
(dp1478
g15
I0
sg16
I01
sbsg54
(lp1479
g1024
asbsg54
(lp1480
g1023
asbsg54
(lp1481
g888
ag1004
ag1022
asbsg17
(lp1482
g894
ag901
ag908
ag923
ag924
ag956
ag988
asg31
g32
sg33
(iid3_node
node
p1483
(dp1484
g2
(iid3_node
node
p1485
(dp1486
g2
(iid3_node
node
p1487
(dp1488
g15
I0
sg16
I01
sbsg17
(lp1489
g894
ag924
ag988
asg31
g41
sg33
(iid3_node
node
p1490
(dp1491
g2
(iid3_node
node
p1492
(dp1493
g15
I0
sg16
I01
sbsg17
(lp1494
g894
asg31
g62
sg33
(iid3_node
node
p1495
(dp1496
g15
I1
sg16
I01
sbsg54
(lp1497
g924
ag988
asbsg54
(lp1498
g956
asbsg17
(lp1499
g901
ag908
ag923
asg31
g68
sg33
(iid3_node
node
p1500
(dp1501
g15
I0
sg16
I01
sbsg54
(lp1502
g894
ag924
ag956
ag988
asbsg54
(lp1503
g888
ag895
ag1004
ag1022
ag1023
ag1024
asbsg54
(lp1504
g886
ag899
ag926
ag930
ag973
ag978
ag1020
asbsg54
(lp1505
g891
ag916
ag917
ag921
ag932
ag934
ag943
ag946
ag947
ag960
ag974
ag976
ag979
ag985
ag1000
ag1007
ag1009
ag1010
ag1025
asbsg54
(lp1506
g881
ag882
ag883
ag884
ag885
ag887
ag889
ag890
ag892
ag893
ag896
ag897
ag898
ag900
ag902
ag903
ag904
ag905
ag906
ag907
ag909
ag910
ag911
ag912
ag913
ag914
ag915
ag918
ag919
ag920
ag922
ag925
ag927
ag928
ag929
ag931
ag933
ag935
ag936
ag937
ag938
ag939
ag940
ag941
ag942
ag944
ag945
ag948
ag949
ag950
ag951
ag952
ag953
ag954
ag955
ag957
ag958
ag959
ag961
ag962
ag963
ag964
ag965
ag966
ag967
ag968
ag969
ag970
ag971
ag972
ag975
ag977
ag980
ag981
ag982
ag983
ag984
ag986
ag987
ag989
ag990
ag991
ag992
ag993
ag994
ag995
ag996
ag997
ag998
ag999
ag1001
ag1002
ag1003
ag1005
ag1006
ag1008
ag1011
ag1012
ag1013
ag1014
ag1015
ag1016
ag1017
ag1018
ag1019
ag1021
ag1026
ag1027
ag1028
asbsg54
(lp1507
g529
ag81
ag73
ag82
ag530
ag205
ag531
ag532
ag533
ag206
ag534
ag207
ag535
ag536
ag537
ag538
ag539
ag208
ag209
ag210
ag211
ag540
ag19
ag541
ag212
ag213
ag542
ag214
ag543
ag215
ag544
ag83
ag216
ag545
ag546
ag547
ag548
ag84
ag85
ag217
ag218
ag219
ag549
ag550
ag86
ag551
ag220
ag552
ag221
ag222
ag223
ag553
ag554
ag555
ag87
ag22
ag556
ag224
ag74
ag557
ag558
ag88
ag559
ag560
ag23
ag561
ag225
ag226
ag562
ag563
ag564
ag227
ag228
ag229
ag230
ag231
ag565
ag566
ag89
ag567
ag75
ag76
ag90
ag232
ag233
ag568
ag569
ag570
ag571
ag572
ag573
ag77
ag574
ag575
ag576
ag234
ag235
ag91
ag92
ag236
ag93
ag577
ag237
ag578
ag238
ag239
ag579
ag240
ag241
ag94
ag95
ag242
ag243
ag244
ag245
ag580
ag246
ag581
ag247
ag248
ag249
ag24
ag250
ag582
ag25
ag583
ag251
ag96
ag252
ag253
ag584
ag26
ag585
ag586
ag254
ag587
ag588
ag589
ag590
ag255
ag591
ag592
ag593
ag594
ag595
ag256
ag596
ag257
ag258
ag259
ag260
ag27
ag597
ag598
ag78
ag599
ag600
ag28
ag261
ag601
ag262
ag97
ag263
ag264
ag602
ag265
ag603
ag29
ag604
ag266
ag605
ag267
ag98
ag268
ag99
ag606
ag269
ag270
ag607
ag271
ag608
ag609
ag30
ag610
ag100
ag79
ag611
asbsg17
(lp1508
(lp1509
g21
ag21
ag20
ag21
ag21
ag20
ag21
ag21
ag20
ag21
ag21
ag21
ag20
ag21
ag21
ag20
ag20
ag21
ag20
ag20
ag21
aa(lp1510
g21
ag20
ag21
ag21
ag21
ag20
ag21
ag21
ag21
ag20
ag20
ag21
ag20
ag20
ag20
ag21
ag20
ag20
ag20
ag20
ag21
aa(lp1511
g21
ag20
ag21
ag20
ag21
ag21
ag21
ag20
ag21
ag20
ag20
ag21
ag21
ag21
ag20
ag21
ag20
ag21
ag21
ag20
ag20
aa(lp1512
g21
ag20
ag21
ag20
ag20
ag20
ag20
ag21
ag21
ag20
ag20
ag21
ag20
ag20
ag20
ag20
ag21
ag20
ag20
ag20
ag21
aa(lp1513
g21
ag20
ag21
ag20
ag21
ag21
ag21
ag21
ag20
ag20
ag21
ag21
ag21
ag21
ag20
ag20
ag21
ag20
ag21
ag20
ag20
aa(lp1514
g21
ag20
ag21
ag20
ag21
ag21
ag21
ag20
ag20
ag20
ag20
ag20
ag20
ag20
ag21
ag20
ag20
ag20
ag21
ag20
ag20
aa(lp1515
g21
ag20
ag20
ag20
ag20
ag20
ag21
ag21
ag20
ag20
ag21
ag20
ag21
ag21
ag21
ag21
ag20
ag20
ag21
ag20
ag21
aa(lp1516
g21
ag20
ag21
ag21
ag20
ag20
ag20
ag21
ag20
ag21
ag21
ag20
ag20
ag21
ag20
ag20
ag20
ag20
ag20
ag21
ag20
aa(lp1517
g21
ag20
ag21
ag20
ag20
ag21
ag21
ag20
ag20
ag21
ag20
ag20
ag20
ag21
ag20
ag20
ag20
ag21
ag20
ag20
ag21
aa(lp1518
g21
ag21
ag20
ag21
ag21
ag21
ag21
ag20
ag21
ag20
ag21
ag20
ag20
ag20
ag21
ag20
ag20
ag20
ag20
ag20
ag20
aa(lp1519
g21
ag21
ag20
ag21
ag20
ag21
ag21
ag20
ag21
ag21
ag20
ag21
ag21
ag20
ag21
ag21
ag20
ag20
ag20
ag20
ag20
aa(lp1520
g21
ag21
ag20
ag21
ag20
ag20
ag21
ag21
ag21
ag20
ag21
ag20
ag21
ag21
ag21
ag21
ag20
ag20
ag20
ag20
ag21
aa(lp1521
g21
ag21
ag20
ag20
ag21
ag21
ag20
ag21
ag21
ag20
ag20
ag21
ag20
ag20
ag21
ag21
ag21
ag21
ag21
ag21
ag20
aa(lp1522
g21
ag20
ag20
ag20
ag20
ag21
ag20
ag21
ag20
ag20
ag21
ag20
ag20
ag21
ag21
ag21
ag20
ag21
ag21
ag21
ag21
aa(lp1523
g21
ag21
ag20
ag21
ag20
ag20
ag20
ag21
ag21
ag20
ag21
ag20
ag21
ag21
ag21
ag20
ag20
ag21
ag21
ag21
ag20
aa(lp1524
g21
ag20
ag21
ag20
ag20
ag20
ag20
ag21
ag20
ag20
ag20
ag21
ag21
ag20
ag21
ag20
ag21
ag20
ag21
ag21
ag21
aa(lp1525
g21
ag20
ag21
ag21
ag20
ag20
ag21
ag20
ag21
ag20
ag20
ag20
ag21
ag21
ag21
ag21
ag20
ag20
ag20
ag20
ag21
aa(lp1526
g21
ag21
ag20
ag21
ag21
ag21
ag20
ag20
ag21
ag20
ag20
ag21
ag21
ag20
ag21
ag21
ag20
ag21
ag21
ag20
ag20
aa(lp1527
g21
ag20
ag21
ag20
ag21
ag20
ag20
ag21
ag21
ag20
ag20
ag21
ag21
ag21
ag21
ag20
ag21
ag20
ag20
ag21
ag21
aa(lp1528
g21
ag21
ag20
ag21
ag20
ag20
ag21
ag21
ag21
ag20
ag21
ag20
ag20
ag21
ag21
ag20
ag20
ag20
ag21
ag20
ag21
aa(lp1529
g21
ag21
ag20
ag21
ag20
ag21
ag20
ag20
ag20
ag21
ag21
ag21
ag20
ag20
ag20
ag21
ag20
ag21
ag20
ag20
ag20
aa(lp1530
g21
ag21
ag20
ag20
ag20
ag21
ag21
ag21
ag21
ag21
ag21
ag21
ag21
ag20
ag21
ag20
ag21
ag21
ag21
ag21
ag20
aa(lp1531
g21
ag20
ag21
ag21
ag20
ag20
ag21
ag21
ag20
ag20
ag20
ag20
ag20
ag21
ag21
ag21
ag21
ag20
ag20
ag20
ag21
aa(lp1532
g21
ag21
ag21
ag21
ag20
ag21
ag20
ag20
ag21
ag21
ag21
ag20
ag20
ag20
ag20
ag20
ag21
ag21
ag20
ag20
ag20
aa(lp1533
g21
ag20
ag20
ag21
ag21
ag20
ag20
ag21
ag21
ag20
ag21
ag20
ag20
ag21
ag21
ag20
ag21
ag21
ag21
ag20
ag20
aa(lp1534
g21
ag20
ag20
ag20
ag21
ag21
ag20
ag20
ag21
ag21
ag20
ag20
ag20
ag21
ag21
ag21
ag20
ag21
ag20
ag20
ag20
aa(lp1535
g21
ag20
ag20
ag21
ag20
ag20
ag21
ag20
ag20
ag20
ag21
ag20
ag20
ag21
ag21
ag20
ag20
ag21
ag20
ag20
ag21
aa(lp1536
g21
ag20
ag20
ag21
ag21
ag20
ag20
ag21
ag20
ag20
ag21
ag21
ag20
ag21
ag20
ag20
ag20
ag20
ag20
ag20
ag21
aa(lp1537
g21
ag21
ag21
ag20
ag21
ag21
ag20
ag20
ag21
ag21
ag20
ag21
ag21
ag21
ag20
ag21
ag20
ag21
ag21
ag20
ag20
aa(lp1538
g21
ag21
ag20
ag21
ag20
ag20
ag20
ag21
ag21
ag21
ag21
ag20
ag21
ag21
ag21
ag20
ag20
ag21
ag20
ag21
ag21
aa(lp1539
g21
ag20
ag20
ag20
ag21
ag20
ag20
ag20
ag20
ag20
ag21
ag20
ag21
ag21
ag21
ag21
ag20
ag21
ag20
ag20
ag20
aa(lp1540
g21
ag21
ag20
ag20
ag20
ag21
ag21
ag20
ag21
ag20
ag21
ag21
ag20
ag20
ag21
ag21
ag21
ag21
ag21
ag21
ag20
aa(lp1541
g21
ag20
ag21
ag20
ag20
ag21
ag21
ag20
ag20
ag21
ag20
ag20
ag21
ag20
ag20
ag21
ag20
ag20
ag21
ag21
ag20
aa(lp1542
g21
ag20
ag21
ag21
ag20
ag21
ag21
ag21
ag21
ag20
ag20
ag20
ag20
ag21
ag20
ag20
ag20
ag21
ag20
ag20
ag21
aa(lp1543
g21
ag20
ag21
ag20
ag20
ag21
ag21
ag20
ag21
ag20
ag21
ag21
ag21
ag21
ag20
ag21
ag21
ag20
ag21
ag20
ag20
aa(lp1544
g21
ag20
ag21
ag20
ag21
ag20
ag21
ag21
ag20
ag21
ag20
ag20
ag21
ag21
ag21
ag21
ag20
ag21
ag21
ag21
ag20
aa(lp1545
g21
ag20
ag21
ag20
ag21
ag21
ag20
ag21
ag20
ag20
ag21
ag21
ag21
ag20
ag20
ag20
ag20
ag20
ag20
ag20
ag21
aa(lp1546
g21
ag21
ag21
ag21
ag21
ag21
ag20
ag21
ag20
ag20
ag20
ag21
ag20
ag21
ag21
ag20
ag21
ag20
ag20
ag20
ag21
aa(lp1547
g21
ag20
ag21
ag21
ag20
ag20
ag20
ag20
ag21
ag20
ag21
ag21
ag20
ag21
ag21
ag21
ag20
ag21
ag20
ag20
ag20
aa(lp1548
g21
ag20
ag21
ag20
ag20
ag20
ag21
ag21
ag21
ag21
ag21
ag21
ag20
ag20
ag21
ag21
ag21
ag21
ag21
ag20
ag20
aa(lp1549
g21
ag20
ag21
ag20
ag21
ag21
ag20
ag20
ag21
ag20
ag20
ag20
ag21
ag20
ag20
ag21
ag20
ag21
ag21
ag20
ag20
aa(lp1550
g21
ag21
ag20
ag21
ag21
ag21
ag21
ag20
ag21
ag20
ag20
ag20
ag21
ag20
ag21
ag20
ag20
ag20
ag20
ag21
ag20
aa(lp1551
g21
ag20
ag21
ag21
ag20
ag20
ag20
ag21
ag21
ag20
ag21
ag20
ag20
ag21
ag21
ag21
ag20
ag20
ag20
ag20
ag21
aa(lp1552
g21
ag21
ag21
ag21
ag20
ag21
ag21
ag20
ag21
ag21
ag21
ag21
ag20
ag21
ag21
ag21
ag20
ag20
ag20
ag20
ag20
aa(lp1553
g21
ag21
ag21
ag20
ag21
ag20
ag21
ag20
ag21
ag20
ag20
ag20
ag21
ag20
ag21
ag21
ag21
ag21
ag20
ag20
ag20
aa(lp1554
g21
ag21
ag20
ag21
ag20
ag21
ag20
ag20
ag21
ag21
ag20
ag20
ag21
ag20
ag21
ag20
ag20
ag21
ag21
ag21
ag20
aa(lp1555
g21
ag20
ag21
ag21
ag20
ag21
ag20
ag21
ag20
ag21
ag21
ag20
ag20
ag20
ag21
ag21
ag20
ag20
ag20
ag21
ag20
aa(lp1556
g21
ag20
ag20
ag21
ag21
ag21
ag20
ag20
ag20
ag21
ag21
ag21
ag21
ag21
ag20
ag21
ag20
ag20
ag20
ag21
ag20
aa(lp1557
g21
ag20
ag21
ag21
ag20
ag20
ag21
ag20
ag21
ag21
ag20
ag20
ag20
ag20
ag20
ag20
ag20
ag20
ag20
ag20
ag20
aa(lp1558
g21
ag20
ag20
ag21
ag21
ag21
ag21
ag21
ag21
ag21
ag20
ag21
ag20
ag21
ag21
ag20
ag20
ag21
ag20
ag21
ag21
aa(lp1559
g21
ag20
ag21
ag20
ag21
ag20
ag21
ag21
ag20
ag21
ag21
ag20
ag21
ag21
ag21
ag21
ag20
ag21
ag20
ag20
ag20
aa(lp1560
g21
ag21
ag20
ag21
ag20
ag20
ag21
ag20
ag20
ag21
ag21
ag20
ag20
ag21
ag21
ag21
ag20
ag21
ag20
ag20
ag20
aa(lp1561
g21
ag20
ag21
ag21
ag20
ag20
ag21
ag21
ag21
ag20
ag20
ag20
ag21
ag20
ag21
ag20
ag21
ag20
ag20
ag21
ag21
aa(lp1562
g21
ag21
ag21
ag21
ag21
ag21
ag21
ag21
ag21
ag20
ag21
ag21
ag20
ag21
ag21
ag21
ag20
ag21
ag21
ag20
ag20
aa(lp1563
g21
ag20
ag21
ag21
ag20
ag20
ag20
ag21
ag21
ag20
ag21
ag20
ag21
ag20
ag21
ag21
ag20
ag20
ag20
ag20
ag21
aa(lp1564
g21
ag20
ag21
ag21
ag21
ag21
ag21
ag21
ag21
ag20
ag21
ag21
ag21
ag20
ag20
ag20
ag20
ag21
ag20
ag21
ag21
aa(lp1565
g21
ag20
ag20
ag21
ag20
ag21
ag20
ag21
ag20
ag20
ag21
ag21
ag20
ag21
ag21
ag20
ag20
ag21
ag20
ag21
ag21
aa(lp1566
g21
ag20
ag21
ag20
ag20
ag20
ag21
ag21
ag21
ag20
ag20
ag20
ag21
ag21
ag20
ag21
ag21
ag20
ag21
ag21
ag21
aa(lp1567
g21
ag21
ag21
ag20
ag21
ag21
ag20
ag21
ag20
ag21
ag20
ag20
ag20
ag21
ag21
ag20
ag21
ag20
ag20
ag20
ag20
aa(lp1568
g21
ag20
ag20
ag20
ag20
ag20
ag21
ag21
ag20
ag21
ag21
ag20
ag21
ag20
ag21
ag21
ag21
ag20
ag20
ag20
ag20
aa(lp1569
g21
ag20
ag21
ag21
ag21
ag21
ag21
ag21
ag21
ag20
ag20
ag21
ag21
ag20
ag20
ag20
ag20
ag21
ag20
ag21
ag21
aa(lp1570
g21
ag21
ag21
ag20
ag21
ag21
ag20
ag21
ag20
ag20
ag20
ag21
ag21
ag21
ag21
ag20
ag21
ag20
ag20
ag20
ag21
aa(lp1571
g21
ag21
ag20
ag20
ag21
ag20
ag20
ag21
ag21
ag21
ag21
ag20
ag20
ag20
ag20
ag21
ag21
ag20
ag20
ag21
ag20
aa(lp1572
g21
ag20
ag21
ag20
ag20
ag20
ag21
ag20
ag20
ag20
ag20
ag20
ag20
ag21
ag20
ag20
ag20
ag21
ag21
ag20
ag21
aa(lp1573
g21
ag21
ag20
ag21
ag21
ag20
ag20
ag21
ag20
ag21
ag21
ag20
ag21
ag20
ag21
ag20
ag21
ag20
ag21
ag21
ag20
aa(lp1574
g21
ag20
ag20
ag21
ag21
ag21
ag20
ag21
ag21
ag20
ag21
ag20
ag20
ag21
ag21
ag21
ag20
ag20
ag21
ag21
ag20
aa(lp1575
g21
ag20
ag21
ag20
ag20
ag20
ag20
ag21
ag20
ag20
ag20
ag21
ag20
ag20
ag21
ag21
ag21
ag20
ag20
ag20
ag21
aa(lp1576
g21
ag20
ag20
ag21
ag21
ag20
ag21
ag21
ag20
ag21
ag20
ag21
ag21
ag21
ag21
ag20
ag21
ag21
ag20
ag21
ag20
aa(lp1577
g21
ag20
ag21
ag20
ag20
ag20
ag20
ag21
ag21
ag20
ag20
ag21
ag20
ag20
ag20
ag20
ag21
ag21
ag20
ag20
ag21
aa(lp1578
g21
ag20
ag20
ag21
ag20
ag20
ag20
ag21
ag20
ag20
ag20
ag21
ag20
ag21
ag20
ag20
ag20
ag21
ag20
ag21
ag20
aa(lp1579
g21
ag21
ag20
ag21
ag20
ag20
ag21
ag21
ag21
ag20
ag21
ag21
ag20
ag21
ag21
ag20
ag21
ag21
ag20
ag21
ag21
aa(lp1580
g21
ag20
ag21
ag20
ag20
ag20
ag21
ag20
ag20
ag21
ag20
ag21
ag20
ag21
ag20
ag20
ag21
ag21
ag20
ag20
ag21
aa(lp1581
g21
ag21
ag21
ag21
ag21
ag21
ag20
ag20
ag20
ag21
ag21
ag21
ag20
ag20
ag21
ag20
ag21
ag21
ag20
ag21
ag20
aa(lp1582
g21
ag21
ag20
ag20
ag20
ag20
ag21
ag20
ag21
ag20
ag21
ag20
ag21
ag21
ag21
ag21
ag20
ag20
ag20
ag20
ag21
aa(lp1583
g21
ag20
ag20
ag20
ag20
ag20
ag20
ag20
ag21
ag21
ag21
ag20
ag20
ag21
ag21
ag20
ag20
ag21
ag20
ag20
ag21
aa(lp1584
g21
ag21
ag21
ag21
ag21
ag21
ag21
ag20
ag21
ag20
ag20
ag21
ag20
ag20
ag21
ag21
ag21
ag20
ag20
ag20
ag20
aa(lp1585
g21
ag21
ag20
ag21
ag20
ag20
ag20
ag20
ag21
ag20
ag21
ag20
ag21
ag21
ag21
ag21
ag21
ag20
ag21
ag20
ag21
aa(lp1586
g21
ag20
ag21
ag21
ag21
ag20
ag21
ag21
ag20
ag20
ag21
ag21
ag21
ag20
ag21
ag20
ag21
ag21
ag21
ag21
ag20
aa(lp1587
g21
ag20
ag20
ag20
ag21
ag20
ag21
ag21
ag21
ag20
ag20
ag21
ag20
ag21
ag21
ag20
ag21
ag20
ag20
ag20
ag21
aa(lp1588
g21
ag20
ag20
ag21
ag20
ag20
ag21
ag21
ag20
ag21
ag20
ag20
ag21
ag21
ag20
ag20
ag21
ag21
ag20
ag20
ag21
aa(lp1589
g21
ag20
ag21
ag21
ag20
ag21
ag21
ag21
ag21
ag20
ag20
ag21
ag20
ag20
ag21
ag21
ag21
ag20
ag20
ag21
ag20
aa(lp1590
g21
ag20
ag20
ag20
ag21
ag20
ag21
ag21
ag21
ag21
ag21
ag21
ag20
ag21
ag20
ag20
ag21
ag21
ag20
ag21
ag21
aa(lp1591
g21
ag21
ag21
ag20
ag20
ag21
ag21
ag20
ag21
ag20
ag21
ag20
ag21
ag20
ag20
ag20
ag21
ag21
ag21
ag21
ag20
aa(lp1592
g21
ag21
ag20
ag20
ag20
ag20
ag21
ag21
ag21
ag20
ag21
ag21
ag21
ag21
ag21
ag20
ag20
ag20
ag21
ag21
ag21
aa(lp1593
g21
ag20
ag21
ag20
ag20
ag21
ag20
ag20
ag21
ag21
ag20
ag21
ag21
ag21
ag21
ag21
ag20
ag21
ag20
ag20
ag20
aa(lp1594
g21
ag20
ag21
ag21
ag21
ag21
ag20
ag21
ag20
ag20
ag21
ag21
ag21
ag20
ag21
ag21
ag20
ag20
ag21
ag20
ag21
aa(lp1595
g21
ag21
ag20
ag20
ag20
ag20
ag20
ag21
ag21
ag20
ag21
ag20
ag21
ag20
ag21
ag20
ag21
ag20
ag21
ag21
ag20
aa(lp1596
g21
ag21
ag21
ag20
ag20
ag20
ag20
ag21
ag20
ag20
ag21
ag20
ag21
ag21
ag21
ag20
ag20
ag20
ag20
ag20
ag20
aa(lp1597
g21
ag20
ag20
ag21
ag21
ag21
ag20
ag20
ag20
ag21
ag21
ag20
ag21
ag20
ag20
ag21
ag20
ag20
ag21
ag20
ag20
aa(lp1598
g21
ag20
ag21
ag20
ag20
ag20
ag21
ag20
ag20
ag21
ag20
ag21
ag20
ag21
ag20
ag20
ag20
ag21
ag20
ag21
ag21
aa(lp1599
g21
ag20
ag20
ag20
ag20
ag21
ag21
ag20
ag20
ag20
ag20
ag20
ag21
ag20
ag21
ag20
ag20
ag21
ag21
ag20
ag20
aa(lp1600
g21
ag20
ag20
ag21
ag21
ag21
ag20
ag21
ag21
ag20
ag21
ag21
ag20
ag21
ag21
ag20
ag20
ag21
ag20
ag21
ag21
aa(lp1601
g21
ag20
ag20
ag20
ag20
ag21
ag20
ag20
ag20
ag20
ag20
ag21
ag20
ag21
ag20
ag21
ag20
ag21
ag21
ag21
ag20
aa(lp1602
g21
ag20
ag20
ag20
ag20
ag20
ag21
ag21
ag20
ag20
ag20
ag20
ag20
ag21
ag21
ag20
ag20
ag21
ag21
ag21
ag21
aa(lp1603
g21
ag20
ag21
ag21
ag20
ag20
ag21
ag21
ag21
ag20
ag20
ag20
ag21
ag20
ag20
ag20
ag20
ag21
ag21
ag20
ag21
aa(lp1604
g21
ag20
ag21
ag20
ag21
ag21
ag20
ag21
ag20
ag20
ag21
ag20
ag21
ag20
ag21
ag21
ag20
ag21
ag20
ag20
ag20
aa(lp1605
g21
ag20
ag21
ag21
ag20
ag21
ag20
ag21
ag21
ag20
ag20
ag21
ag20
ag21
ag20
ag20
ag20
ag21
ag21
ag21
ag21
aa(lp1606
g21
ag20
ag21
ag21
ag20
ag20
ag20
ag21
ag20
ag20
ag20
ag21
ag20
ag20
ag20
ag20
ag20
ag20
ag20
ag20
ag21
aa(lp1607
g21
ag20
ag20
ag21
ag21
ag21
ag21
ag21
ag21
ag21
ag21
ag20
ag20
ag20
ag20
ag20
ag20
ag21
ag21
ag20
ag20
aa(lp1608
g21
ag21
ag21
ag20
ag20
ag20
ag21
ag20
ag21
ag20
ag20
ag20
ag20
ag21
ag21
ag20
ag21
ag20
ag21
ag21
ag21
aa(lp1609
g21
ag20
ag21
ag21
ag21
ag21
ag21
ag20
ag20
ag20
ag21
ag20
ag20
ag20
ag20
ag20
ag21
ag20
ag20
ag21
ag20
aa(lp1610
g21
ag21
ag21
ag21
ag21
ag20
ag21
ag21
ag21
ag20
ag20
ag21
ag20
ag21
ag21
ag20
ag20
ag20
ag21
ag20
ag21
aa(lp1611
g21
ag20
ag20
ag21
ag21
ag20
ag20
ag20
ag21
ag21
ag20
ag21
ag21
ag20
ag20
ag20
ag20
ag21
ag21
ag20
ag20
aa(lp1612
g21
ag20
ag21
ag21
ag21
ag20
ag20
ag21
ag21
ag20
ag21
ag21
ag20
ag20
ag20
ag21
ag20
ag20
ag21
ag21
ag21
aa(lp1613
g21
ag20
ag20
ag20
ag20
ag21
ag21
ag21
ag20
ag20
ag20
ag20
ag20
ag21
ag20
ag20
ag20
ag21
ag21
ag21
ag20
aa(lp1614
g21
ag20
ag21
ag21
ag20
ag20
ag20
ag21
ag21
ag20
ag21
ag20
ag21
ag21
ag21
ag20
ag21
ag20
ag20
ag20
ag21
aa(lp1615
g21
ag20
ag20
ag21
ag21
ag20
ag20
ag21
ag21
ag21
ag21
ag20
ag20
ag20
ag21
ag20
ag21
ag20
ag20
ag20
ag20
aa(lp1616
g21
ag21
ag21
ag20
ag21
ag21
ag21
ag21
ag20
ag20
ag21
ag20
ag21
ag21
ag21
ag20
ag21
ag21
ag20
ag21
ag20
aa(lp1617
g21
ag21
ag20
ag20
ag20
ag20
ag21
ag20
ag21
ag21
ag20
ag20
ag21
ag21
ag21
ag21
ag20
ag20
ag20
ag21
ag21
aa(lp1618
g21
ag21
ag21
ag21
ag20
ag20
ag20
ag21
ag21
ag21
ag21
ag21
ag20
ag21
ag21
ag20
ag20
ag20
ag21
ag21
ag20
aa(lp1619
g21
ag21
ag20
ag21
ag20
ag20
ag21
ag21
ag20
ag20
ag20
ag21
ag21
ag21
ag21
ag20
ag20
ag20
ag20
ag21
ag21
aa(lp1620
g21
ag20
ag21
ag20
ag20
ag20
ag20
ag20
ag20
ag20
ag20
ag21
ag20
ag21
ag21
ag20
ag20
ag20
ag21
ag21
ag21
aa(lp1621
g21
ag21
ag21
ag21
ag21
ag21
ag20
ag21
ag20
ag20
ag21
ag20
ag21
ag20
ag21
ag21
ag20
ag21
ag21
ag20
ag20
aa(lp1622
g21
ag21
ag20
ag20
ag20
ag21
ag20
ag21
ag21
ag20
ag21
ag20
ag20
ag21
ag21
ag20
ag21
ag21
ag20
ag21
ag21
aa(lp1623
g21
ag20
ag21
ag21
ag20
ag21
ag21
ag21
ag20
ag20
ag20
ag20
ag20
ag21
ag20
ag21
ag20
ag21
ag20
ag21
ag21
aa(lp1624
g21
ag21
ag20
ag21
ag20
ag21
ag20
ag21
ag21
ag21
ag21
ag20
ag21
ag20
ag21
ag21
ag21
ag20
ag21
ag21
ag20
aa(lp1625
g21
ag21
ag21
ag20
ag21
ag21
ag21
ag20
ag21
ag21
ag20
ag21
ag20
ag20
ag21
ag20
ag21
ag20
ag21
ag20
ag20
aa(lp1626
g21
ag20
ag20
ag21
ag20
ag21
ag20
ag21
ag21
ag20
ag21
ag20
ag20
ag21
ag21
ag20
ag20
ag21
ag20
ag20
ag21
aa(lp1627
g21
ag20
ag20
ag21
ag20
ag21
ag21
ag20
ag21
ag20
ag21
ag20
ag21
ag20
ag20
ag20
ag21
ag21
ag21
ag20
ag20
aa(lp1628
g21
ag20
ag21
ag20
ag20
ag20
ag21
ag20
ag21
ag20
ag20
ag21
ag21
ag21
ag20
ag20
ag20
ag21
ag21
ag21
ag21
aa(lp1629
g21
ag20
ag21
ag20
ag21
ag21
ag20
ag21
ag20
ag20
ag21
ag21
ag21
ag21
ag21
ag20
ag20
ag20
ag21
ag21
ag20
aa(lp1630
g21
ag20
ag21
ag20
ag20
ag21
ag21
ag21
ag20
ag20
ag21
ag20
ag21
ag21
ag20
ag20
ag20
ag20
ag20
ag21
ag20
aa(lp1631
g21
ag21
ag20
ag20
ag21
ag21
ag21
ag21
ag21
ag21
ag20
ag21
ag21
ag21
ag21
ag20
ag20
ag20
ag20
ag20
ag21
aa(lp1632
g21
ag20
ag21
ag20
ag20
ag20
ag21
ag21
ag20
ag20
ag21
ag20
ag21
ag21
ag21
ag20
ag21
ag20
ag20
ag21
ag21
aa(lp1633
g21
ag21
ag21
ag20
ag20
ag20
ag20
ag20
ag21
ag20
ag21
ag20
ag21
ag21
ag21
ag21
ag21
ag20
ag21
ag21
ag21
aa(lp1634
g21
ag21
ag20
ag21
ag21
ag21
ag20
ag21
ag21
ag20
ag20
ag20
ag21
ag20
ag21
ag21
ag21
ag21
ag21
ag20
ag20
aa(lp1635
g21
ag21
ag20
ag21
ag20
ag20
ag20
ag20
ag21
ag20
ag20
ag21
ag21
ag21
ag21
ag20
ag21
ag20
ag20
ag20
ag21
aa(lp1636
g21
ag21
ag20
ag21
ag20
ag20
ag21
ag20
ag21
ag21
ag21
ag21
ag20
ag21
ag20
ag21
ag20
ag20
ag21
ag21
ag20
aa(lp1637
g21
ag20
ag20
ag21
ag20
ag20
ag20
ag20
ag20
ag21
ag21
ag21
ag20
ag21
ag21
ag20
ag20
ag20
ag20
ag21
ag21
aa(lp1638
g21
ag21
ag21
ag20
ag20
ag20
ag21
ag21
ag21
ag20
ag20
ag20
ag21
ag21
ag21
ag21
ag21
ag20
ag21
ag20
ag21
aa(lp1639
g21
ag20
ag21
ag20
ag20
ag20
ag21
ag21
ag21
ag20
ag20
ag21
ag21
ag21
ag20
ag20
ag21
ag21
ag20
ag21
ag20
aa(lp1640
g21
ag21
ag20
ag20
ag21
ag20
ag21
ag21
ag20
ag21
ag20
ag20
ag20
ag20
ag21
ag21
ag21
ag21
ag21
ag21
ag20
aa(lp1641
g21
ag21
ag21
ag21
ag21
ag20
ag21
ag21
ag21
ag21
ag21
ag21
ag21
ag20
ag21
ag21
ag21
ag20
ag20
ag20
ag20
aa(lp1642
g21
ag20
ag20
ag20
ag21
ag20
ag21
ag20
ag20
ag20
ag21
ag20
ag20
ag21
ag21
ag21
ag21
ag20
ag21
ag20
ag20
aa(lp1643
g21
ag20
ag20
ag20
ag20
ag20
ag21
ag21
ag20
ag21
ag20
ag20
ag21
ag21
ag21
ag20
ag21
ag20
ag20
ag21
ag21
aa(lp1644
g21
ag21
ag20
ag20
ag21
ag20
ag21
ag21
ag20
ag21
ag21
ag20
ag20
ag21
ag20
ag21
ag21
ag20
ag20
ag20
ag20
aa(lp1645
g21
ag20
ag21
ag21
ag21
ag21
ag20
ag21
ag20
ag20
ag20
ag21
ag21
ag20
ag20
ag20
ag20
ag21
ag20
ag21
ag21
aa(lp1646
g21
ag21
ag20
ag21
ag20
ag21
ag21
ag20
ag20
ag21
ag21
ag20
ag20
ag20
ag21
ag20
ag21
ag21
ag20
ag20
ag20
aa(lp1647
g21
ag21
ag20
ag21
ag20
ag21
ag20
ag21
ag21
ag20
ag20
ag20
ag21
ag20
ag21
ag21
ag21
ag21
ag20
ag21
ag20
aa(lp1648
g21
ag20
ag20
ag21
ag20
ag20
ag20
ag20
ag20
ag20
ag21
ag21
ag20
ag21
ag20
ag20
ag21
ag21
ag20
ag21
ag20
aa(lp1649
g21
ag21
ag21
ag20
ag21
ag20
ag20
ag21
ag20
ag20
ag20
ag20
ag21
ag21
ag21
ag20
ag20
ag21
ag21
ag20
ag20
aa(lp1650
g21
ag20
ag20
ag20
ag21
ag21
ag21
ag21
ag21
ag21
ag21
ag21
ag21
ag21
ag21
ag20
ag20
ag20
ag20
ag21
ag21
aa(lp1651
g21
ag21
ag20
ag20
ag20
ag21
ag21
ag21
ag20
ag20
ag20
ag21
ag20
ag21
ag20
ag21
ag20
ag20
ag21
ag20
ag20
aa(lp1652
g21
ag21
ag20
ag20
ag20
ag20
ag21
ag21
ag21
ag21
ag21
ag20
ag20
ag20
ag21
ag21
ag20
ag21
ag21
ag21
ag20
aa(lp1653
g21
ag20
ag20
ag20
ag20
ag20
ag20
ag21
ag20
ag20
ag20
ag20
ag21
ag20
ag20
ag21
ag21
ag21
ag21
ag21
ag20
aa(lp1654
g21
ag20
ag20
ag21
ag20
ag20
ag21
ag20
ag21
ag21
ag21
ag21
ag21
ag20
ag20
ag20
ag20
ag20
ag20
ag20
ag20
aa(lp1655
g21
ag21
ag20
ag21
ag20
ag20
ag21
ag21
ag21
ag20
ag21
ag21
ag20
ag21
ag21
ag20
ag21
ag20
ag21
ag20
ag21
aa(lp1656
g21
ag20
ag21
ag20
ag21
ag20
ag20
ag21
ag21
ag20
ag20
ag21
ag21
ag20
ag20
ag21
ag21
ag20
ag20
ag21
ag21
aa(lp1657
g21
ag20
ag21
ag20
ag21
ag21
ag21
ag21
ag21
ag20
ag21
ag21
ag21
ag21
ag20
ag20
ag20
ag21
ag20
ag21
ag21
aa(lp1658
g21
ag20
ag20
ag21
ag21
ag20
ag21
ag20
ag21
ag20
ag20
ag21
ag21
ag20
ag21
ag20
ag20
ag21
ag20
ag21
ag20
aa(lp1659
g21
ag20
ag20
ag20
ag21
ag20
ag21
ag21
ag21
ag21
ag20
ag21
ag20
ag21
ag20
ag20
ag20
ag20
ag20
ag21
ag21
aa(lp1660
g21
ag21
ag20
ag20
ag20
ag20
ag20
ag21
ag21
ag21
ag21
ag21
ag20
ag20
ag21
ag20
ag21
ag20
ag20
ag20
ag20
aa(lp1661
g21
ag21
ag21
ag21
ag21
ag20
ag20
ag20
ag20
ag20
ag21
ag21
ag21
ag20
ag20
ag21
ag20
ag21
ag21
ag21
ag20
aa(lp1662
g21
ag20
ag20
ag20
ag20
ag20
ag21
ag21
ag21
ag20
ag20
ag20
ag20
ag21
ag21
ag20
ag21
ag21
ag20
ag21
ag21
aa(lp1663
g21
ag20
ag21
ag20
ag20
ag21
ag20
ag21
ag20
ag20
ag20
ag21
ag20
ag20
ag21
ag21
ag20
ag20
ag20
ag21
ag20
aa(lp1664
g21
ag21
ag21
ag20
ag21
ag21
ag21
ag20
ag20
ag21
ag21
ag20
ag20
ag21
ag20
ag20
ag20
ag21
ag20
ag20
ag20
aa(lp1665
g21
ag20
ag21
ag20
ag20
ag20
ag21
ag21
ag21
ag20
ag20
ag21
ag20
ag20
ag20
ag20
ag21
ag21
ag20
ag21
ag21
aa(lp1666
g21
ag21
ag21
ag21
ag21
ag20
ag21
ag20
ag21
ag20
ag20
ag20
ag20
ag21
ag21
ag20
ag20
ag20
ag21
ag20
ag20
aa(lp1667
g21
ag20
ag21
ag20
ag21
ag20
ag20
ag21
ag20
ag20
ag21
ag21
ag20
ag20
ag20
ag21
ag21
ag20
ag20
ag21
ag21
aa(lp1668
g21
ag20
ag21
ag20
ag20
ag20
ag21
ag20
ag21
ag21
ag20
ag21
ag20
ag21
ag20
ag20
ag20
ag21
ag20
ag21
ag21
aa(lp1669
g21
ag21
ag20
ag20
ag20
ag20
ag20
ag20
ag21
ag20
ag20
ag20
ag20
ag20
ag21
ag20
ag21
ag20
ag21
ag21
ag20
aa(lp1670
g21
ag20
ag20
ag21
ag20
ag20
ag20
ag21
ag20
ag20
ag21
ag21
ag21
ag21
ag21
ag20
ag20
ag20
ag21
ag20
ag21
aa(lp1671
g21
ag20
ag20
ag21
ag21
ag20
ag20
ag21
ag21
ag21
ag20
ag21
ag20
ag21
ag21
ag20
ag21
ag20
ag20
ag21
ag21
aa(lp1672
g21
ag20
ag21
ag20
ag20
ag20
ag20
ag21
ag20
ag20
ag20
ag21
ag21
ag21
ag21
ag21
ag21
ag20
ag21
ag21
ag20
aa(lp1673
g21
ag21
ag20
ag20
ag20
ag20
ag20
ag21
ag21
ag20
ag20
ag21
ag21
ag21
ag21
ag20
ag21
ag20
ag21
ag21
ag21
aa(lp1674
g21
ag20
ag20
ag21
ag21
ag21
ag20
ag20
ag21
ag21
ag20
ag21
ag20
ag20
ag21
ag21
ag20
ag20
ag20
ag21
ag20
aa(lp1675
g21
ag20
ag20
ag20
ag21
ag21
ag21
ag21
ag21
ag21
ag21
ag21
ag21
ag21
ag20
ag20
ag20
ag21
ag20
ag21
ag21
aa(lp1676
g21
ag21
ag21
ag20
ag20
ag21
ag20
ag20
ag21
ag21
ag20
ag20
ag21
ag21
ag21
ag20
ag21
ag20
ag20
ag21
ag20
aa(lp1677
g21
ag20
ag20
ag20
ag21
ag20
ag20
ag21
ag20
ag20
ag21
ag20
ag20
ag21
ag21
ag21
ag21
ag20
ag20
ag20
ag20
aa(lp1678
g21
ag20
ag21
ag21
ag21
ag21
ag21
ag21
ag21
ag20
ag20
ag21
ag20
ag21
ag20
ag20
ag21
ag20
ag21
ag21
ag20
aa(lp1679
g21
ag21
ag20
ag20
ag21
ag21
ag20
ag20
ag20
ag21
ag20
ag21
ag21
ag20
ag20
ag20
ag21
ag20
ag21
ag21
ag20
aa(lp1680
g21
ag20
ag20
ag21
ag20
ag21
ag20
ag21
ag21
ag20
ag21
ag21
ag21
ag21
ag20
ag20
ag21
ag20
ag20
ag21
ag20
aa(lp1681
g21
ag20
ag20
ag21
ag20
ag20
ag21
ag20
ag20
ag21
ag20
ag20
ag20
ag21
ag21
ag20
ag21
ag21
ag20
ag20
ag21
aa(lp1682
g21
ag21
ag20
ag21
ag20
ag20
ag21
ag21
ag20
ag20
ag20
ag21
ag21
ag21
ag21
ag20
ag21
ag20
ag20
ag21
ag20
aa(lp1683
g21
ag20
ag20
ag20
ag20
ag21
ag21
ag20
ag20
ag20
ag21
ag20
ag20
ag21
ag21
ag20
ag20
ag21
ag21
ag20
ag21
aa(lp1684
g21
ag21
ag20
ag20
ag20
ag20
ag21
ag21
ag21
ag21
ag20
ag20
ag21
ag21
ag21
ag21
ag21
ag20
ag20
ag20
ag21
aa(lp1685
g21
ag21
ag21
ag20
ag20
ag20
ag20
ag21
ag20
ag20
ag20
ag21
ag20
ag21
ag21
ag20
ag20
ag21
ag21
ag21
ag20
aa(lp1686
g21
ag21
ag20
ag21
ag20
ag21
ag20
ag21
ag21
ag20
ag21
ag21
ag20
ag21
ag21
ag20
ag20
ag21
ag20
ag21
ag21
aa(lp1687
g21
ag20
ag21
ag21
ag21
ag20
ag21
ag20
ag21
ag21
ag21
ag20
ag21
ag21
ag21
ag20
ag20
ag20
ag20
ag20
ag20
aa(lp1688
g21
ag20
ag20
ag21
ag20
ag20
ag20
ag20
ag20
ag20
ag20
ag20
ag21
ag21
ag20
ag21
ag20
ag20
ag20
ag20
ag20
aa(lp1689
g21
ag21
ag20
ag21
ag20
ag21
ag20
ag21
ag21
ag21
ag21
ag20
ag21
ag21
ag21
ag21
ag20
ag21
ag20
ag21
ag21
aa(lp1690
g21
ag20
ag21
ag20
ag20
ag20
ag21
ag21
ag20
ag20
ag20
ag20
ag21
ag21
ag20
ag20
ag20
ag21
ag20
ag21
ag21
aa(lp1691
g21
ag20
ag20
ag20
ag21
ag20
ag20
ag21
ag21
ag21
ag20
ag20
ag20
ag20
ag21
ag20
ag20
ag21
ag20
ag21
ag20
aa(lp1692
g21
ag21
ag21
ag20
ag21
ag21
ag20
ag21
ag21
ag20
ag21
ag21
ag20
ag20
ag21
ag20
ag20
ag20
ag21
ag20
ag20
aa(lp1693
g21
ag20
ag20
ag21
ag20
ag20
ag21
ag20
ag21
ag20
ag21
ag20
ag20
ag21
ag21
ag21
ag20
ag20
ag20
ag20
ag21
aa(lp1694
g21
ag21
ag21
ag20
ag20
ag20
ag20
ag21
ag21
ag20
ag20
ag21
ag21
ag21
ag20
ag21
ag21
ag20
ag21
ag21
ag20
aa(lp1695
g21
ag20
ag21
ag20
ag20
ag20
ag20
ag20
ag20
ag20
ag20
ag20
ag21
ag20
ag20
ag20
ag20
ag20
ag21
ag21
ag20
aa(lp1696
g21
ag20
ag21
ag21
ag20
ag20
ag20
ag20
ag20
ag20
ag20
ag21
ag20
ag21
ag20
ag20
ag20
ag21
ag21
ag21
ag21
aa(lp1697
g21
ag20
ag21
ag21
ag20
ag20
ag21
ag21
ag21
ag21
ag21
ag21
ag21
ag20
ag20
ag21
ag21
ag21
ag20
ag21
ag20
aa(lp1698
g21
ag20
ag21
ag21
ag20
ag20
ag21
ag21
ag20
ag20
ag21
ag21
ag20
ag21
ag21
ag20
ag20
ag20
ag21
ag21
ag21
aa(lp1699
g21
ag20
ag21
ag21
ag20
ag20
ag21
ag20
ag20
ag21
ag20
ag21
ag20
ag21
ag21
ag20
ag20
ag20
ag20
ag20
ag21
aa(lp1700
g21
ag20
ag21
ag20
ag21
ag21
ag21
ag20
ag21
ag20
ag21
ag21
ag21
ag20
ag21
ag21
ag20
ag21
ag20
ag20
ag20
aa(lp1701
g21
ag21
ag20
ag20
ag20
ag20
ag20
ag20
ag20
ag20
ag20
ag20
ag21
ag21
ag20
ag21
ag21
ag20
ag20
ag20
ag20
aa(lp1702
g21
ag20
ag20
ag21
ag20
ag20
ag21
ag20
ag21
ag20
ag21
ag21
ag21
ag21
ag21
ag20
ag21
ag21
ag20
ag21
ag21
aa(lp1703
g21
ag21
ag20
ag21
ag21
ag20
ag20
ag20
ag21
ag21
ag20
ag20
ag21
ag20
ag20
ag20
ag20
ag20
ag21
ag21
ag20
aa(lp1704
g21
ag21
ag20
ag21
ag20
ag20
ag21
ag20
ag21
ag20
ag20
ag20
ag21
ag21
ag20
ag20
ag21
ag21
ag21
ag20
ag21
aa(lp1705
g21
ag20
ag20
ag21
ag20
ag20
ag20
ag20
ag21
ag20
ag20
ag21
ag20
ag21
ag21
ag20
ag20
ag21
ag20
ag21
ag21
aa(lp1706
g21
ag21
ag20
ag20
ag21
ag20
ag21
ag20
ag20
ag21
ag20
ag20
ag21
ag21
ag20
ag20
ag20
ag20
ag21
ag20
ag20
aa(lp1707
g21
ag20
ag21
ag21
ag20
ag21
ag21
ag21
ag21
ag20
ag20
ag21
ag21
ag21
ag20
ag20
ag20
ag21
ag20
ag21
ag21
aa(lp1708
g21
ag21
ag21
ag21
ag21
ag21
ag21
ag21
ag21
ag21
ag21
ag21
ag20
ag21
ag21
ag21
ag20
ag21
ag20
ag21
ag20
aa(lp1709
g21
ag20
ag20
ag21
ag21
ag20
ag20
ag20
ag21
ag20
ag20
ag21
ag20
ag20
ag20
ag21
ag20
ag21
ag21
ag21
ag20
aa(lp1710
g21
ag20
ag20
ag21
ag21
ag21
ag21
ag21
ag21
ag20
ag21
ag21
ag20
ag21
ag21
ag20
ag20
ag20
ag20
ag21
ag21
aa(lp1711
g21
ag20
ag21
ag20
ag21
ag21
ag20
ag21
ag21
ag20
ag21
ag21
ag20
ag20
ag20
ag20
ag20
ag20
ag20
ag21
ag21
aa(lp1712
g21
ag21
ag21
ag21
ag20
ag20
ag21
ag21
ag21
ag20
ag20
ag20
ag21
ag21
ag21
ag20
ag20
ag20
ag21
ag20
ag21
aa(lp1713
g21
ag21
ag20
ag21
ag20
ag21
ag21
ag21
ag21
ag20
ag20
ag20
ag20
ag21
ag21
ag21
ag20
ag21
ag21
ag20
ag21
aa(lp1714
g21
ag20
ag21
ag20
ag21
ag21
ag20
ag21
ag21
ag20
ag21
ag20
ag20
ag21
ag20
ag20
ag20
ag21
ag21
ag21
ag20
aa(lp1715
g21
ag20
ag20
ag20
ag20
ag20
ag20
ag21
ag21
ag21
ag21
ag20
ag20
ag20
ag20
ag20
ag20
ag20
ag21
ag20
ag20
aa(lp1716
g21
ag20
ag20
ag21
ag21
ag20
ag21
ag21
ag21
ag20
ag20
ag21
ag20
ag20
ag21
ag21
ag21
ag21
ag21
ag21
ag20
aa(lp1717
g21
ag20
ag20
ag21
ag20
ag21
ag21
ag21
ag21
ag20
ag21
ag20
ag20
ag21
ag21
ag20
ag20
ag21
ag20
ag21
ag21
aa(lp1718
g21
ag20
ag20
ag20
ag20
ag21
ag20
ag20
ag20
ag20
ag21
ag21
ag21
ag21
ag21
ag21
ag21
ag21
ag21
ag20
ag20
aa(lp1719
g21
ag21
ag21
ag21
ag21
ag21
ag21
ag21
ag20
ag20
ag20
ag21
ag21
ag21
ag21
ag20
ag20
ag20
ag21
ag20
ag21
aa(lp1720
g21
ag20
ag21
ag21
ag20
ag21
ag21
ag21
ag20
ag20
ag20
ag21
ag21
ag20
ag20
ag20
ag20
ag21
ag20
ag21
ag21
aa(lp1721
g21
ag21
ag20
ag21
ag20
ag21
ag21
ag20
ag21
ag20
ag20
ag20
ag21
ag21
ag20
ag21
ag21
ag21
ag21
ag20
ag21
aa(lp1722
g21
ag20
ag20
ag20
ag20
ag20
ag20
ag21
ag21
ag21
ag20
ag21
ag20
ag21
ag21
ag21
ag20
ag21
ag21
ag21
ag20
aa(lp1723
g21
ag20
ag21
ag21
ag20
ag20
ag20
ag21
ag21
ag20
ag21
ag21
ag20
ag20
ag21
ag21
ag20
ag20
ag20
ag21
ag21
aa(lp1724
g21
ag21
ag21
ag20
ag20
ag20
ag21
ag20
ag21
ag20
ag20
ag21
ag20
ag21
ag21
ag20
ag21
ag20
ag20
ag21
ag21
aa(lp1725
g21
ag21
ag21
ag20
ag21
ag21
ag21
ag21
ag21
ag21
ag21
ag20
ag20
ag21
ag20
ag20
ag20
ag20
ag21
ag21
ag20
aa(lp1726
g21
ag20
ag20
ag21
ag21
ag21
ag20
ag21
ag21
ag21
ag20
ag21
ag20
ag21
ag21
ag20
ag21
ag20
ag20
ag21
ag20
aa(lp1727
g21
ag20
ag20
ag20
ag20
ag20
ag20
ag20
ag20
ag21
ag21
ag20
ag21
ag20
ag20
ag20
ag21
ag21
ag21
ag21
ag20
aa(lp1728
g21
ag21
ag20
ag21
ag20
ag20
ag20
ag21
ag20
ag20
ag21
ag21
ag20
ag20
ag20
ag21
ag21
ag20
ag21
ag20
ag20
aa(lp1729
g21
ag21
ag20
ag20
ag20
ag20
ag21
ag20
ag20
ag20
ag20
ag20
ag21
ag20
ag21
ag21
ag20
ag20
ag21
ag21
ag20
aa(lp1730
g21
ag20
ag21
ag20
ag21
ag21
ag21
ag21
ag21
ag20
ag20
ag21
ag21
ag20
ag21
ag21
ag20
ag20
ag21
ag20
ag21
aa(lp1731
g21
ag20
ag21
ag21
ag20
ag20
ag20
ag21
ag21
ag20
ag21
ag21
ag20
ag20
ag21
ag21
ag21
ag20
ag21
ag21
ag21
aa(lp1732
g21
ag21
ag21
ag21
ag21
ag20
ag21
ag20
ag20
ag21
ag21
ag21
ag21
ag20
ag21
ag21
ag21
ag20
ag21
ag21
ag20
aa(lp1733
g21
ag20
ag21
ag21
ag20
ag20
ag21
ag21
ag21
ag20
ag20
ag21
ag21
ag20
ag20
ag20
ag20
ag20
ag20
ag20
ag21
aa(lp1734
g21
ag20
ag20
ag20
ag20
ag20
ag21
ag20
ag21
ag20
ag21
ag20
ag20
ag20
ag21
ag21
ag20
ag20
ag20
ag21
ag20
aa(lp1735
g21
ag20
ag20
ag20
ag21
ag21
ag21
ag20
ag20
ag21
ag21
ag21
ag21
ag21
ag20
ag20
ag20
ag21
ag20
ag21
ag20
aa(lp1736
g21
ag20
ag21
ag20
ag20
ag20
ag21
ag20
ag21
ag21
ag20
ag21
ag21
ag21
ag21
ag20
ag21
ag20
ag20
ag20
ag21
aa(lp1737
g21
ag20
ag21
ag20
ag21
ag20
ag21
ag20
ag20
ag21
ag21
ag20
ag20
ag21
ag21
ag20
ag20
ag20
ag20
ag21
ag20
aa(lp1738
g21
ag21
ag20
ag20
ag20
ag20
ag21
ag21
ag21
ag20
ag21
ag21
ag21
ag21
ag21
ag20
ag20
ag20
ag21
ag20
ag21
aa(lp1739
g21
ag21
ag20
ag21
ag21
ag21
ag20
ag21
ag20
ag21
ag20
ag20
ag21
ag20
ag20
ag21
ag21
ag21
ag20
ag21
ag20
aa(lp1740
g21
ag21
ag21
ag20
ag20
ag20
ag20
ag21
ag21
ag20
ag20
ag21
ag21
ag21
ag21
ag21
ag20
ag21
ag21
ag21
ag20
aa(lp1741
g21
ag20
ag21
ag20
ag20
ag20
ag21
ag20
ag21
ag20
ag20
ag21
ag20
ag20
ag20
ag20
ag21
ag21
ag20
ag20
ag20
aa(lp1742
g21
ag20
ag20
ag21
ag20
ag21
ag21
ag21
ag20
ag20
ag21
ag21
ag21
ag21
ag20
ag20
ag20
ag21
ag21
ag21
ag20
aa(lp1743
g21
ag21
ag21
ag20
ag21
ag21
ag20
ag21
ag20
ag20
ag21
ag21
ag20
ag21
ag21
ag20
ag21
ag20
ag20
ag20
ag21
aa(lp1744
g21
ag20
ag21
ag21
ag21
ag20
ag20
ag20
ag21
ag20
ag21
ag21
ag21
ag20
ag20
ag21
ag20
ag20
ag21
ag21
ag20
aa(lp1745
g21
ag20
ag21
ag21
ag20
ag21
ag21
ag20
ag20
ag21
ag20
ag20
ag20
ag21
ag20
ag21
ag20
ag21
ag20
ag20
ag21
aa(lp1746
g21
ag20
ag20
ag21
ag20
ag21
ag20
ag21
ag20
ag20
ag21
ag20
ag21
ag21
ag21
ag21
ag20
ag21
ag21
ag20
ag21
aa(lp1747
g21
ag21
ag20
ag21
ag20
ag20
ag20
ag21
ag20
ag21
ag20
ag21
ag20
ag21
ag21
ag20
ag21
ag21
ag20
ag20
ag21
aa(lp1748
g21
ag20
ag20
ag21
ag21
ag21
ag20
ag21
ag21
ag20
ag20
ag21
ag20
ag21
ag21
ag20
ag20
ag20
ag21
ag21
ag21
aa(lp1749
g21
ag20
ag20
ag20
ag20
ag20
ag20
ag21
ag21
ag20
ag20
ag21
ag20
ag21
ag21
ag20
ag20
ag21
ag21
ag20
ag21
aa(lp1750
g21
ag20
ag20
ag20
ag20
ag20
ag21
ag20
ag20
ag21
ag20
ag20
ag20
ag21
ag20
ag20
ag21
ag20
ag20
ag20
ag21
aa(lp1751
g21
ag20
ag21
ag20
ag20
ag20
ag21
ag20
ag20
ag20
ag21
ag21
ag21
ag20
ag21
ag20
ag20
ag21
ag21
ag21
ag20
aa(lp1752
g21
ag21
ag21
ag20
ag21
ag21
ag20
ag21
ag20
ag20
ag21
ag21
ag21
ag21
ag21
ag20
ag21
ag20
ag21
ag21
ag21
aa(lp1753
g21
ag20
ag20
ag21
ag20
ag21
ag20
ag20
ag21
ag20
ag21
ag20
ag21
ag21
ag21
ag21
ag20
ag21
ag21
ag20
ag21
aa(lp1754
g21
ag20
ag21
ag20
ag21
ag20
ag21
ag21
ag20
ag21
ag20
ag21
ag20
ag20
ag21
ag21
ag20
ag21
ag21
ag21
ag20
aa(lp1755
g21
ag21
ag20
ag21
ag20
ag21
ag21
ag21
ag21
ag20
ag20
ag21
ag21
ag21
ag21
ag20
ag20
ag21
ag20
ag21
ag21
aa(lp1756
g21
ag20
ag20
ag20
ag21
ag20
ag21
ag21
ag20
ag21
ag20
ag21
ag20
ag21
ag20
ag20
ag21
ag20
ag20
ag21
ag21
aa(lp1757
g21
ag20
ag20
ag21
ag21
ag21
ag21
ag21
ag20
ag21
ag21
ag21
ag20
ag21
ag21
ag21
ag20
ag20
ag21
ag20
ag20
aa(lp1758
g21
ag20
ag21
ag21
ag20
ag20
ag21
ag21
ag21
ag20
ag20
ag21
ag21
ag21
ag20
ag20
ag20
ag21
ag20
ag20
ag21
aa(lp1759
g21
ag20
ag20
ag21
ag21
ag20
ag21
ag20
ag20
ag20
ag21
ag20
ag21
ag20
ag20
ag20
ag20
ag21
ag21
ag20
ag20
aa(lp1760
g21
ag20
ag21
ag20
ag20
ag20
ag21
ag20
ag21
ag20
ag20
ag21
ag21
ag21
ag20
ag20
ag20
ag21
ag21
ag20
ag21
aa(lp1761
g21
ag20
ag20
ag20
ag20
ag21
ag20
ag21
ag21
ag21
ag21
ag20
ag21
ag20
ag21
ag20
ag21
ag20
ag21
ag21
ag20
aa(lp1762
g21
ag20
ag21
ag20
ag21
ag21
ag21
ag21
ag20
ag20
ag21
ag21
ag21
ag21
ag20
ag20
ag20
ag20
ag21
ag20
ag21
aa(lp1763
g21
ag21
ag21
ag20
ag20
ag20
ag21
ag20
ag20
ag21
ag20
ag21
ag21
ag21
ag20
ag20
ag21
ag20
ag21
ag20
ag20
aa(lp1764
g21
ag20
ag20
ag20
ag21
ag21
ag21
ag21
ag20
ag20
ag20
ag21
ag20
ag21
ag21
ag20
ag20
ag20
ag20
ag21
ag21
aa(lp1765
g21
ag20
ag21
ag20
ag20
ag20
ag21
ag21
ag21
ag20
ag20
ag20
ag20
ag21
ag20
ag21
ag20
ag20
ag20
ag20
ag21
aa(lp1766
g21
ag20
ag21
ag20
ag20
ag20
ag21
ag21
ag20
ag20
ag21
ag21
ag21
ag21
ag21
ag20
ag21
ag20
ag20
ag20
ag21
aa(lp1767
g21
ag20
ag21
ag21
ag20
ag20
ag21
ag20
ag20
ag20
ag21
ag21
ag20
ag21
ag20
ag20
ag20
ag20
ag20
ag20
ag20
aa(lp1768
g21
ag20
ag21
ag20
ag21
ag20
ag21
ag20
ag21
ag20
ag20
ag21
ag21
ag21
ag20
ag20
ag21
ag21
ag21
ag21
ag20
aa(lp1769
g21
ag21
ag20
ag21
ag20
ag20
ag20
ag21
ag20
ag20
ag21
ag21
ag21
ag21
ag21
ag20
ag21
ag21
ag20
ag21
ag21
aa(lp1770
g21
ag21
ag20
ag20
ag20
ag20
ag20
ag21
ag21
ag20
ag20
ag21
ag20
ag21
ag20
ag20
ag20
ag20
ag20
ag21
ag20
aa(lp1771
g21
ag20
ag20
ag21
ag20
ag20
ag20
ag21
ag20
ag20
ag21
ag20
ag21
ag21
ag21
ag21
ag21
ag20
ag20
ag21
ag21
aa(lp1772
g21
ag20
ag20
ag20
ag21
ag21
ag21
ag21
ag21
ag20
ag21
ag21
ag20
ag21
ag21
ag20
ag20
ag20
ag21
ag21
ag21
aa(lp1773
g21
ag21
ag20
ag21
ag20
ag21
ag21
ag20
ag20
ag20
ag20
ag21
ag20
ag21
ag21
ag20
ag20
ag21
ag20
ag20
ag20
aasg31
S'XB'
p1774
sg33
(iid3_node
node
p1775
(dp1776
g2
(iid3_node
node
p1777
(dp1778
g2
(iid3_node
node
p1779
(dp1780
g2
(iid3_node
node
p1781
(dp1782
g2
(iid3_node
node
p1783
(dp1784
g2
(iid3_node
node
p1785
(dp1786
g2
(iid3_node
node
p1787
(dp1788
g2
(iid3_node
node
p1789
(dp1790
g2
(iid3_node
node
p1791
(dp1792
g15
I0
sg16
I01
sbsg17
(lp1793
g1583
asg31
g62
sg33
(iid3_node
node
p1794
(dp1795
g15
I1
sg16
I01
sbsg54
(lp1796
g1727
asbsg17
(lp1797
g1653
ag1715
ag1722
ag1749
asg31
g41
sg33
(iid3_node
node
p1798
(dp1799
g2
(iid3_node
node
p1800
(dp1801
g15
I0
sg16
I01
sbsg17
(lp1802
g1715
ag1722
ag1749
asg31
g62
sg33
(iid3_node
node
p1803
(dp1804
g2
(iid3_node
node
p1805
(dp1806
g15
I1
sg16
I01
sbsg17
(lp1807
g1715
ag1722
asg31
g57
sg33
(iid3_node
node
p1808
(dp1809
g15
I0
sg16
I01
sbsg54
(lp1810
g1749
asbsg54
(lp1811
g1653
asbsg54
(lp1812
g1583
ag1727
asbsg17
(lp1813
g1515
ag1568
ag1602
ag1643
ag1662
ag1734
ag1750
asg31
g68
sg33
(iid3_node
node
p1814
(dp1815
g2
(iid3_node
node
p1816
(dp1817
g2
(iid3_node
node
p1818
(dp1819
g15
I1
sg16
I01
sbsg17
(lp1820
g1734
asg31
g62
sg33
(iid3_node
node
p1821
(dp1822
g15
I0
sg16
I01
sbsg54
(lp1823
g1750
asbsg17
(lp1824
g1515
ag1568
ag1602
ag1643
ag1662
asg31
g41
sg33
(iid3_node
node
p1825
(dp1826
g2
(iid3_node
node
p1827
(dp1828
g2
(iid3_node
node
p1829
(dp1830
g15
I1
sg16
I01
sbsg17
(lp1831
g1568
ag1643
asg31
g57
sg33
(iid3_node
node
p1832
(dp1833
g2
(iid3_node
node
p1834
(dp1835
g15
I1
sg16
I01
sbsg17
(lp1836
g1568
asg31
g116
sg33
(iid3_node
node
p1837
(dp1838
g15
I0
sg16
I01
sbsg54
(lp1839
g1643
asbsg54
(lp1840
g1515
ag1602
asbsg17
(lp1841
g1662
asg31
g62
sg33
(iid3_node
node
p1842
(dp1843
g15
I1
sg16
I01
sbsg54
(lp1844
g1515
ag1568
ag1602
ag1643
asbsg54
(lp1845
g1734
ag1750
asbsg54
(lp1846
g1583
ag1653
ag1715
ag1722
ag1727
ag1749
asbsg17
(lp1847
g1522
ag1599
ag1601
ag1613
ag1683
ag1718
ag1761
asg31
g32
sg33
(iid3_node
node
p1848
(dp1849
g2
(iid3_node
node
p1850
(dp1851
g2
(iid3_node
node
p1852
(dp1853
g15
I0
sg16
I01
sbsg17
(lp1854
g1522
ag1761
asg31
g41
sg33
(iid3_node
node
p1855
(dp1856
g2
(iid3_node
node
p1857
(dp1858
g15
I1
sg16
I01
sbsg17
(lp1859
g1761
asg31
g62
sg33
(iid3_node
node
p1860
(dp1861
g15
I0
sg16
I01
sbsg54
(lp1862
g1522
asbsg54
(lp1863
g1601
ag1718
asbsg17
(lp1864
g1599
ag1613
ag1683
asg31
g68
sg33
(iid3_node
node
p1865
(dp1866
g2
(iid3_node
node
p1867
(dp1868
g2
(iid3_node
node
p1869
(dp1870
g15
I0
sg16
I01
sbsg17
(lp1871
g1683
asg31
g116
sg33
(iid3_node
node
p1872
(dp1873
g15
I1
sg16
I01
sbsg54
(lp1874
g1599
asbsg17
(lp1875
g1613
asg31
g41
sg33
(iid3_node
node
p1876
(dp1877
g15
I0
sg16
I01
sbsg54
(lp1878
g1599
ag1683
asbsg54
(lp1879
g1522
ag1601
ag1718
ag1761
asbsg54
(lp1880
g1515
ag1568
ag1583
ag1602
ag1643
ag1653
ag1662
ag1715
ag1722
ag1727
ag1734
ag1749
ag1750
asbsg17
(lp1881
g1534
ag1539
ag1587
ag1590
ag1642
ag1650
ag1659
ag1675
ag1677
ag1691
ag1735
ag1756
ag1764
ag1772
asg31
g101
sg33
(iid3_node
node
p1882
(dp1883
g2
(iid3_node
node
p1884
(dp1885
g2
(iid3_node
node
p1886
(dp1887
g15
I0
sg16
I01
sbsg17
(lp1888
g1587
ag1590
ag1642
ag1659
ag1756
asg31
g68
sg33
(iid3_node
node
p1889
(dp1890
g2
(iid3_node
node
p1891
(dp1892
g15
I0
sg16
I01
sbsg17
(lp1893
g1587
ag1590
ag1659
ag1756
asg31
g41
sg33
(iid3_node
node
p1894
(dp1895
g15
I1
sg16
I01
sbsg54
(lp1896
g1642
asbsg54
(lp1897
g1539
ag1677
ag1691
asbsg17
(lp1898
g1534
ag1650
ag1675
ag1735
ag1764
ag1772
asg31
g32
sg33
(iid3_node
node
p1899
(dp1900
g2
(iid3_node
node
p1901
(dp1902
g15
I0
sg16
I01
sbsg17
(lp1903
g1650
ag1675
ag1735
ag1764
ag1772
asg31
g68
sg33
(iid3_node
node
p1904
(dp1905
g2
(iid3_node
node
p1906
(dp1907
g15
I0
sg16
I01
sbsg17
(lp1908
g1650
ag1675
ag1764
ag1772
asg31
g41
sg33
(iid3_node
node
p1909
(dp1910
g15
I1
sg16
I01
sbsg54
(lp1911
g1735
asbsg54
(lp1912
g1534
asbsg54
(lp1913
g1539
ag1587
ag1590
ag1642
ag1659
ag1677
ag1691
ag1756
asbsg54
(lp1914
g1515
ag1522
ag1568
ag1583
ag1599
ag1601
ag1602
ag1613
ag1643
ag1653
ag1662
ag1683
ag1715
ag1718
ag1722
ag1727
ag1734
ag1749
ag1750
ag1761
asbsg17
(lp1915
g1533
ag1535
ag1536
ag1556
ag1558
ag1565
ag1574
ag1576
ag1578
ag1588
ag1597
ag1600
ag1607
ag1611
ag1615
ag1626
ag1627
ag1637
ag1648
ag1654
ag1658
ag1670
ag1671
ag1674
ag1680
ag1681
ag1688
ag1693
ag1702
ag1705
ag1709
ag1710
ag1716
ag1717
ag1726
ag1742
ag1746
ag1748
ag1753
ag1757
ag1759
ag1771
asg31
g272
sg33
(iid3_node
node
p1916
(dp1917
g2
(iid3_node
node
p1918
(dp1919
g2
(iid3_node
node
p1920
(dp1921
g2
(iid3_node
node
p1922
(dp1923
g2
(iid3_node
node
p1924
(dp1925
g2
(iid3_node
node
p1926
(dp1927
g2
(iid3_node
node
p1928
(dp1929
g15
I0
sg16
I01
sbsg17
(lp1930
g1637
asg31
g57
sg33
(iid3_node
node
p1931
(dp1932
g15
I1
sg16
I01
sbsg54
(lp1933
g1648
ag1688
asbsg17
(lp1934
g1705
asg31
g62
sg33
(iid3_node
node
p1935
(dp1936
g15
I1
sg16
I01
sbsg54
(lp1937
g1637
ag1648
ag1688
asbsg17
(lp1938
g1578
ag1670
ag1771
asg31
g41
sg33
(iid3_node
node
p1939
(dp1940
g2
(iid3_node
node
p1941
(dp1942
g15
I0
sg16
I01
sbsg17
(lp1943
g1670
ag1771
asg31
g116
sg33
(iid3_node
node
p1944
(dp1945
g15
I1
sg16
I01
sbsg54
(lp1946
g1578
asbsg54
(lp1947
g1637
ag1648
ag1688
ag1705
asbsg17
(lp1948
g1535
ag1588
ag1654
ag1681
ag1693
ag1702
asg31
g68
sg33
(iid3_node
node
p1949
(dp1950
g2
(iid3_node
node
p1951
(dp1952
g2
(iid3_node
node
p1953
(dp1954
g15
I1
sg16
I01
sbsg17
(lp1955
g1654
ag1693
ag1702
asg31
g62
sg33
(iid3_node
node
p1956
(dp1957
g2
(iid3_node
node
p1958
(dp1959
g15
I1
sg16
I01
sbsg17
(lp1960
g1654
asg31
g57
sg33
(iid3_node
node
p1961
(dp1962
g15
I0
sg16
I01
sbsg54
(lp1963
g1693
ag1702
asbsg54
(lp1964
g1535
ag1681
asbsg17
(lp1965
g1588
asg31
g41
sg33
(iid3_node
node
p1966
(dp1967
g15
I1
sg16
I01
sbsg54
(lp1968
g1535
ag1654
ag1681
ag1693
ag1702
asbsg54
(lp1969
g1578
ag1637
ag1648
ag1670
ag1688
ag1705
ag1771
asbsg17
(lp1970
g1565
ag1626
ag1627
ag1680
ag1717
ag1742
ag1746
ag1753
asg31
g32
sg33
(iid3_node
node
p1971
(dp1972
g2
(iid3_node
node
p1973
(dp1974
g2
(iid3_node
node
p1975
(dp1976
g15
I1
sg16
I01
sbsg17
(lp1977
g1565
ag1626
ag1680
ag1746
asg31
g41
sg33
(iid3_node
node
p1978
(dp1979
g2
(iid3_node
node
p1980
(dp1981
g15
I1
sg16
I01
sbsg17
(lp1982
g1626
ag1680
asg31
g62
sg33
(iid3_node
node
p1983
(dp1984
g2
(iid3_node
node
p1985
(dp1986
g15
I1
sg16
I01
sbsg17
(lp1987
g1680
asg31
g129
sg33
(iid3_node
node
p1988
(dp1989
g15
I0
sg16
I01
sbsg54
(lp1990
g1626
asbsg54
(lp1991
g1565
ag1746
asbsg54
(lp1992
g1753
asbsg17
(lp1993
g1627
ag1717
ag1742
asg31
g68
sg33
(iid3_node
node
p1994
(dp1995
g2
(iid3_node
node
p1996
(dp1997
g15
I0
sg16
I01
sbsg17
(lp1998
g1717
ag1742
asg31
g41
sg33
(iid3_node
node
p1999
(dp2000
g2
(iid3_node
node
p2001
(dp2002
g15
I0
sg16
I01
sbsg17
(lp2003
g1717
asg31
g62
sg33
(iid3_node
node
p2004
(dp2005
g15
I1
sg16
I01
sbsg54
(lp2006
g1742
asbsg54
(lp2007
g1627
asbsg54
(lp2008
g1565
ag1626
ag1680
ag1746
ag1753
asbsg54
(lp2009
g1535
ag1578
ag1588
ag1637
ag1648
ag1654
ag1670
ag1681
ag1688
ag1693
ag1702
ag1705
ag1771
asbsg17
(lp2010
g1533
ag1536
ag1556
ag1558
ag1574
ag1576
ag1597
ag1600
ag1607
ag1611
ag1615
ag1658
ag1671
ag1674
ag1709
ag1710
ag1716
ag1726
ag1748
ag1757
ag1759
asg31
g101
sg33
(iid3_node
node
p2011
(dp2012
g2
(iid3_node
node
p2013
(dp2014
g2
(iid3_node
node
p2015
(dp2016
g2
(iid3_node
node
p2017
(dp2018
g15
I0
sg16
I01
sbsg17
(lp2019
g1533
ag1536
ag1615
ag1671
asg31
g41
sg33
(iid3_node
node
p2020
(dp2021
g2
(iid3_node
node
p2022
(dp2023
g15
I1
sg16
I01
sbsg17
(lp2024
g1533
ag1615
ag1671
asg31
g62
sg33
(iid3_node
node
p2025
(dp2026
g2
(iid3_node
node
p2027
(dp2028
g15
I0
sg16
I01
sbsg17
(lp2029
g1615
ag1671
asg31
g57
sg33
(iid3_node
node
p2030
(dp2031
g2
(iid3_node
node
p2032
(dp2033
g15
I1
sg16
I01
sbsg17
(lp2034
g1615
asg31
g116
sg33
(iid3_node
node
p2035
(dp2036
g15
I0
sg16
I01
sbsg54
(lp2037
g1671
asbsg54
(lp2038
g1533
asbsg54
(lp2039
g1536
asbsg54
(lp2040
g1611
ag1709
asbsg17
(lp2041
g1576
ag1658
ag1716
ag1759
asg31
g68
sg33
(iid3_node
node
p2042
(dp2043
g15
I0
sg16
I01
sbsg54
(lp2044
g1533
ag1536
ag1611
ag1615
ag1671
ag1709
asbsg17
(lp2045
g1556
ag1558
ag1574
ag1597
ag1600
ag1607
ag1674
ag1710
ag1726
ag1748
ag1757
asg31
g32
sg33
(iid3_node
node
p2046
(dp2047
g2
(iid3_node
node
p2048
(dp2049
g2
(iid3_node
node
p2050
(dp2051
g15
I0
sg16
I01
sbsg17
(lp2052
g1574
ag1600
ag1726
ag1748
asg31
g41
sg33
(iid3_node
node
p2053
(dp2054
g2
(iid3_node
node
p2055
(dp2056
g2
(iid3_node
node
p2057
(dp2058
g15
I1
sg16
I01
sbsg17
(lp2059
g1574
ag1600
asg31
g116
sg33
(iid3_node
node
p2060
(dp2061
g2
(iid3_node
node
p2062
(dp2063
g15
I0
sg16
I01
sbsg17
(lp2064
g1600
asg31
g129
sg33
(iid3_node
node
p2065
(dp2066
g15
I1
sg16
I01
sbsg54
(lp2067
g1574
asbsg54
(lp2068
g1748
asbsg17
(lp2069
g1726
asg31
g57
sg33
(iid3_node
node
p2070
(dp2071
g15
I0
sg16
I01
sbsg54
(lp2072
g1574
ag1600
ag1748
asbsg54
(lp2073
g1556
ag1597
ag1674
asbsg17
(lp2074
g1558
ag1607
ag1710
ag1757
asg31
g68
sg33
(iid3_node
node
p2075
(dp2076
g2
(iid3_node
node
p2077
(dp2078
g15
I0
sg16
I01
sbsg17
(lp2079
g1558
ag1607
ag1710
asg31
g62
sg33
(iid3_node
node
p2080
(dp2081
g2
(iid3_node
node
p2082
(dp2083
g15
I1
sg16
I01
sbsg17
(lp2084
g1558
ag1607
asg31
g57
sg33
(iid3_node
node
p2085
(dp2086
g2
(iid3_node
node
p2087
(dp2088
g15
I1
sg16
I01
sbsg17
(lp2089
g1607
asg31
g116
sg33
(iid3_node
node
p2090
(dp2091
g15
I0
sg16
I01
sbsg54
(lp2092
g1558
asbsg54
(lp2093
g1710
asbsg54
(lp2094
g1757
asbsg54
(lp2095
g1556
ag1574
ag1597
ag1600
ag1674
ag1726
ag1748
asbsg54
(lp2096
g1533
ag1536
ag1576
ag1611
ag1615
ag1658
ag1671
ag1709
ag1716
ag1759
asbsg54
(lp2097
g1535
ag1565
ag1578
ag1588
ag1626
ag1627
ag1637
ag1648
ag1654
ag1670
ag1680
ag1681
ag1688
ag1693
ag1702
ag1705
ag1717
ag1742
ag1746
ag1753
ag1771
asbsg54
(lp2098
g1515
ag1522
ag1534
ag1539
ag1568
ag1583
ag1587
ag1590
ag1599
ag1601
ag1602
ag1613
ag1642
ag1643
ag1650
ag1653
ag1659
ag1662
ag1675
ag1677
ag1683
ag1691
ag1715
ag1718
ag1722
ag1727
ag1734
ag1735
ag1749
ag1750
ag1756
ag1761
ag1764
ag1772
asbsg17
(lp2099
g1510
ag1511
ag1512
ag1513
ag1514
ag1516
ag1517
ag1524
ag1525
ag1527
ag1531
ag1541
ag1542
ag1543
ag1544
ag1545
ag1547
ag1548
ag1549
ag1551
ag1555
ag1557
ag1559
ag1561
ag1563
ag1564
ag1566
ag1569
ag1572
ag1575
ag1577
ag1580
ag1586
ag1589
ag1593
ag1594
ag1598
ag1603
ag1604
ag1605
ag1606
ag1609
ag1612
ag1614
ag1620
ag1623
ag1628
ag1629
ag1630
ag1632
ag1639
ag1645
ag1656
ag1657
ag1663
ag1665
ag1667
ag1668
ag1672
ag1678
ag1687
ag1690
ag1695
ag1696
ag1697
ag1698
ag1699
ag1700
ag1707
ag1711
ag1714
ag1720
ag1723
ag1730
ag1731
ag1733
ag1736
ag1737
ag1741
ag1744
ag1745
ag1751
ag1754
ag1758
ag1760
ag1762
ag1765
ag1766
ag1767
ag1768
asg31
g612
sg33
(iid3_node
node
p2100
(dp2101
g2
(iid3_node
node
p2102
(dp2103
g2
(iid3_node
node
p2104
(dp2105
g2
(iid3_node
node
p2106
(dp2107
g2
(iid3_node
node
p2108
(dp2109
g2
(iid3_node
node
p2110
(dp2111
g2
(iid3_node
node
p2112
(dp2113
g15
I0
sg16
I01
sbsg17
(lp2114
g1620
asg31
g129
sg33
(iid3_node
node
p2115
(dp2116
g15
I1
sg16
I01
sbsg54
(lp2117
g1695
asbsg17
(lp2118
g1512
ag1524
ag1575
ag1577
ag1672
asg31
g41
sg33
(iid3_node
node
p2119
(dp2120
g2
(iid3_node
node
p2121
(dp2122
g2
(iid3_node
node
p2123
(dp2124
g15
I1
sg16
I01
sbsg17
(lp2125
g1524
ag1672
asg31
g135
sg33
(iid3_node
node
p2126
(dp2127
g2
(iid3_node
node
p2128
(dp2129
g15
I1
sg16
I01
sbsg17
(lp2130
g1672
asg31
g1087
sg33
(iid3_node
node
p2131
(dp2132
g15
I0
sg16
I01
sbsg54
(lp2133
g1524
asbsg54
(lp2134
g1575
asbsg17
(lp2135
g1512
ag1577
asg31
g62
sg33
(iid3_node
node
p2136
(dp2137
g15
I1
sg16
I01
sbsg54
(lp2138
g1524
ag1575
ag1672
asbsg54
(lp2139
g1620
ag1695
asbsg17
(lp2140
g1548
ag1566
ag1572
ag1580
ag1598
ag1628
ag1632
ag1639
ag1665
ag1668
ag1690
ag1736
ag1741
ag1751
ag1760
ag1765
ag1766
asg31
g68
sg33
(iid3_node
node
p2141
(dp2142
g2
(iid3_node
node
p2143
(dp2144
g2
(iid3_node
node
p2145
(dp2146
g2
(iid3_node
node
p2147
(dp2148
g2
(iid3_node
node
p2149
(dp2150
g15
I1
sg16
I01
sbsg17
(lp2151
g1751
asg31
g116
sg33
(iid3_node
node
p2152
(dp2153
g15
I0
sg16
I01
sbsg54
(lp2154
g1572
asbsg17
(lp2155
g1580
ag1598
asg31
g57
sg33
(iid3_node
node
p2156
(dp2157
g15
I1
sg16
I01
sbsg54
(lp2158
g1572
ag1751
asbsg17
(lp2159
g1628
ag1668
ag1736
ag1741
ag1760
asg31
g62
sg33
(iid3_node
node
p2160
(dp2161
g2
(iid3_node
node
p2162
(dp2163
g2
(iid3_node
node
p2164
(dp2165
g15
I0
sg16
I01
sbsg17
(lp2166
g1628
ag1760
asg31
g135
sg33
(iid3_node
node
p2167
(dp2168
g15
I1
sg16
I01
sbsg54
(lp2169
g1741
asbsg17
(lp2170
g1668
ag1736
asg31
g57
sg33
(iid3_node
node
p2171
(dp2172
g15
I1
sg16
I01
sbsg54
(lp2173
g1628
ag1741
ag1760
asbsg54
(lp2174
g1572
ag1580
ag1598
ag1751
asbsg17
(lp2175
g1548
ag1566
ag1632
ag1639
ag1665
ag1690
ag1765
ag1766
asg31
g41
sg33
(iid3_node
node
p2176
(dp2177
g2
(iid3_node
node
p2178
(dp2179
g15
I1
sg16
I01
sbsg17
(lp2180
g1548
ag1566
ag1639
ag1665
ag1765
asg31
g62
sg33
(iid3_node
node
p2181
(dp2182
g2
(iid3_node
node
p2183
(dp2184
g2
(iid3_node
node
p2185
(dp2186
g15
I1
sg16
I01
sbsg17
(lp2187
g1639
ag1665
asg31
g129
sg33
(iid3_node
node
p2188
(dp2189
g2
(iid3_node
node
p2190
(dp2191
g15
I1
sg16
I01
sbsg17
(lp2192
g1639
asg31
g135
sg33
(iid3_node
node
p2193
(dp2194
g15
I0
sg16
I01
sbsg54
(lp2195
g1665
asbsg54
(lp2196
g1566
ag1765
asbsg17
(lp2197
g1548
asg31
g57
sg33
(iid3_node
node
p2198
(dp2199
g15
I0
sg16
I01
sbsg54
(lp2200
g1566
ag1639
ag1665
ag1765
asbsg54
(lp2201
g1632
ag1690
ag1766
asbsg54
(lp2202
g1572
ag1580
ag1598
ag1628
ag1668
ag1736
ag1741
ag1751
ag1760
asbsg54
(lp2203
g1512
ag1524
ag1575
ag1577
ag1620
ag1672
ag1695
asbsg17
(lp2204
g1517
ag1541
ag1543
ag1593
ag1630
ag1663
asg31
g32
sg33
(iid3_node
node
p2205
(dp2206
g2
(iid3_node
node
p2207
(dp2208
g15
I0
sg16
I01
sbsg17
(lp2209
g1517
ag1541
ag1543
ag1630
asg31
g68
sg33
(iid3_node
node
p2210
(dp2211
g2
(iid3_node
node
p2212
(dp2213
g2
(iid3_node
node
p2214
(dp2215
g2
(iid3_node
node
p2216
(dp2217
g15
I1
sg16
I01
sbsg17
(lp2218
g1541
asg31
g135
sg33
(iid3_node
node
p2219
(dp2220
g15
I0
sg16
I01
sbsg54
(lp2221
g1517
asbsg17
(lp2222
g1543
asg31
g62
sg33
(iid3_node
node
p2223
(dp2224
g15
I0
sg16
I01
sbsg54
(lp2225
g1517
ag1541
asbsg17
(lp2226
g1630
asg31
g41
sg33
(iid3_node
node
p2227
(dp2228
g15
I0
sg16
I01
sbsg54
(lp2229
g1517
ag1541
ag1543
asbsg54
(lp2230
g1593
ag1663
asbsg54
(lp2231
g1512
ag1524
ag1548
ag1566
ag1572
ag1575
ag1577
ag1580
ag1598
ag1620
ag1628
ag1632
ag1639
ag1665
ag1668
ag1672
ag1690
ag1695
ag1736
ag1741
ag1751
ag1760
ag1765
ag1766
asbsg17
(lp2232
g1511
ag1513
ag1514
ag1527
ag1544
ag1545
ag1549
ag1559
ag1604
ag1629
ag1656
ag1657
ag1667
ag1700
ag1711
ag1714
ag1730
ag1737
ag1754
ag1762
ag1768
asg31
g101
sg33
(iid3_node
node
p2233
(dp2234
g2
(iid3_node
node
p2235
(dp2236
g2
(iid3_node
node
p2237
(dp2238
g15
I1
sg16
I01
sbsg17
(lp2239
g1544
ag1559
ag1737
ag1754
ag1768
asg31
g68
sg33
(iid3_node
node
p2240
(dp2241
g15
I0
sg16
I01
sbsg54
(lp2242
g1527
ag1656
ag1667
asbsg17
(lp2243
g1511
ag1513
ag1514
ag1545
ag1549
ag1604
ag1629
ag1657
ag1700
ag1711
ag1714
ag1730
ag1762
asg31
g32
sg33
(iid3_node
node
p2244
(dp2245
g2
(iid3_node
node
p2246
(dp2247
g2
(iid3_node
node
p2248
(dp2249
g15
I0
sg16
I01
sbsg17
(lp2250
g1545
ag1604
ag1629
ag1711
ag1714
asg31
g41
sg33
(iid3_node
node
p2251
(dp2252
g2
(iid3_node
node
p2253
(dp2254
g2
(iid3_node
node
p2255
(dp2256
g15
I0
sg16
I01
sbsg17
(lp2257
g1545
ag1629
asg31
g129
sg33
(iid3_node
node
p2258
(dp2259
g2
(iid3_node
node
p2260
(dp2261
g15
I1
sg16
I01
sbsg17
(lp2262
g1629
asg31
g1087
sg33
(iid3_node
node
p2263
(dp2264
g15
I0
sg16
I01
sbsg54
(lp2265
g1545
asbsg54
(lp2266
g1604
asbsg17
(lp2267
g1711
ag1714
asg31
g62
sg33
(iid3_node
node
p2268
(dp2269
g2
(iid3_node
node
p2270
(dp2271
g15
I0
sg16
I01
sbsg17
(lp2272
g1711
asg31
g129
sg33
(iid3_node
node
p2273
(dp2274
g15
I1
sg16
I01
sbsg54
(lp2275
g1714
asbsg54
(lp2276
g1545
ag1604
ag1629
asbsg54
(lp2277
g1549
asbsg17
(lp2278
g1511
ag1513
ag1514
ag1657
ag1700
ag1730
ag1762
asg31
g68
sg33
(iid3_node
node
p2279
(dp2280
g2
(iid3_node
node
p2281
(dp2282
g15
I0
sg16
I01
sbsg17
(lp2283
g1513
ag1657
ag1730
ag1762
asg31
g41
sg33
(iid3_node
node
p2284
(dp2285
g2
(iid3_node
node
p2286
(dp2287
g2
(iid3_node
node
p2288
(dp2289
g15
I1
sg16
I01
sbsg17
(lp2290
g1513
asg31
S'XR'
p2291
sg33
(iid3_node
node
p2292
(dp2293
g15
I0
sg16
I01
sbsg54
(lp2294
g1762
asbsg17
(lp2295
g1657
ag1730
asg31
g62
sg33
(iid3_node
node
p2296
(dp2297
g15
I1
sg16
I01
sbsg54
(lp2298
g1513
ag1762
asbsg54
(lp2299
g1511
ag1514
ag1700
asbsg54
(lp2300
g1545
ag1549
ag1604
ag1629
ag1711
ag1714
asbsg54
(lp2301
g1527
ag1544
ag1559
ag1656
ag1667
ag1737
ag1754
ag1768
asbsg54
(lp2302
g1512
ag1517
ag1524
ag1541
ag1543
ag1548
ag1566
ag1572
ag1575
ag1577
ag1580
ag1593
ag1598
ag1620
ag1628
ag1630
ag1632
ag1639
ag1663
ag1665
ag1668
ag1672
ag1690
ag1695
ag1736
ag1741
ag1751
ag1760
ag1765
ag1766
asbsg17
(lp2303
g1510
ag1516
ag1525
ag1531
ag1542
ag1547
ag1551
ag1555
ag1557
ag1561
ag1563
ag1564
ag1569
ag1586
ag1589
ag1594
ag1603
ag1605
ag1606
ag1609
ag1612
ag1614
ag1623
ag1645
ag1678
ag1687
ag1696
ag1697
ag1698
ag1699
ag1707
ag1720
ag1723
ag1731
ag1733
ag1744
ag1745
ag1758
ag1767
asg31
g272
sg33
(iid3_node
node
p2304
(dp2305
g2
(iid3_node
node
p2306
(dp2307
g2
(iid3_node
node
p2308
(dp2309
g2
(iid3_node
node
p2310
(dp2311
g2
(iid3_node
node
p2312
(dp2313
g2
(iid3_node
node
p2314
(dp2315
g15
I1
sg16
I01
sbsg17
(lp2316
g1547
asg31
g62
sg33
(iid3_node
node
p2317
(dp2318
g15
I0
sg16
I01
sbsg54
(lp2319
g1696
asbsg17
(lp2320
g1516
ag1551
ag1563
ag1606
ag1614
ag1723
ag1731
asg31
g41
sg33
(iid3_node
node
p2321
(dp2322
g2
(iid3_node
node
p2323
(dp2324
g2
(iid3_node
node
p2325
(dp2326
g15
I1
sg16
I01
sbsg17
(lp2327
g1516
asg31
g57
sg33
(iid3_node
node
p2328
(dp2329
g15
I0
sg16
I01
sbsg54
(lp2330
g1606
asbsg17
(lp2331
g1551
ag1563
ag1614
ag1723
ag1731
asg31
g62
sg33
(iid3_node
node
p2332
(dp2333
g15
I1
sg16
I01
sbsg54
(lp2334
g1516
ag1606
asbsg54
(lp2335
g1547
ag1696
asbsg17
(lp2336
g1525
ag1531
ag1557
ag1561
ag1603
ag1697
ag1698
ag1699
ag1733
ag1758
ag1767
asg31
g68
sg33
(iid3_node
node
p2337
(dp2338
g2
(iid3_node
node
p2339
(dp2340
g2
(iid3_node
node
p2341
(dp2342
g2
(iid3_node
node
p2343
(dp2344
g15
I0
sg16
I01
sbsg17
(lp2345
g1699
asg31
g57
sg33
(iid3_node
node
p2346
(dp2347
g15
I1
sg16
I01
sbsg54
(lp2348
g1767
asbsg17
(lp2349
g1525
ag1557
asg31
g62
sg33
(iid3_node
node
p2350
(dp2351
g2
(iid3_node
node
p2352
(dp2353
g15
I1
sg16
I01
sbsg17
(lp2354
g1557
asg31
g57
sg33
(iid3_node
node
p2355
(dp2356
g15
I0
sg16
I01
sbsg54
(lp2357
g1525
asbsg54
(lp2358
g1699
ag1767
asbsg17
(lp2359
g1531
ag1561
ag1603
ag1697
ag1698
ag1733
ag1758
asg31
g41
sg33
(iid3_node
node
p2360
(dp2361
g2
(iid3_node
node
p2362
(dp2363
g15
I1
sg16
I01
sbsg17
(lp2364
g1561
ag1603
ag1697
ag1733
ag1758
asg31
g62
sg33
(iid3_node
node
p2365
(dp2366
g2
(iid3_node
node
p2367
(dp2368
g15
I1
sg16
I01
sbsg17
(lp2369
g1697
asg31
g57
sg33
(iid3_node
node
p2370
(dp2371
g15
I0
sg16
I01
sbsg54
(lp2372
g1561
ag1603
ag1733
ag1758
asbsg54
(lp2373
g1531
ag1698
asbsg54
(lp2374
g1525
ag1557
ag1699
ag1767
asbsg54
(lp2375
g1516
ag1547
ag1551
ag1563
ag1606
ag1614
ag1696
ag1723
ag1731
asbsg17
(lp2376
g1542
ag1555
ag1589
ag1605
ag1623
ag1707
ag1720
ag1745
asg31
g32
sg33
(iid3_node
node
p2377
(dp2378
g2
(iid3_node
node
p2379
(dp2380
g2
(iid3_node
node
p2381
(dp2382
g15
I0
sg16
I01
sbsg17
(lp2383
g1605
asg31
g62
sg33
(iid3_node
node
p2384
(dp2385
g15
I1
sg16
I01
sbsg54
(lp2386
g1555
asbsg17
(lp2387
g1542
ag1589
ag1623
ag1707
ag1720
ag1745
asg31
g68
sg33
(iid3_node
node
p2388
(dp2389
g2
(iid3_node
node
p2390
(dp2391
g15
I1
sg16
I01
sbsg17
(lp2392
g1542
ag1589
ag1623
ag1707
ag1720
asg31
g41
sg33
(iid3_node
node
p2393
(dp2394
g2
(iid3_node
node
p2395
(dp2396
g15
I1
sg16
I01
sbsg17
(lp2397
g1542
ag1589
ag1707
asg31
g62
sg33
(iid3_node
node
p2398
(dp2399
g2
(iid3_node
node
p2400
(dp2401
g15
I1
sg16
I01
sbsg17
(lp2402
g1589
ag1707
asg31
g129
sg33
(iid3_node
node
p2403
(dp2404
g2
(iid3_node
node
p2405
(dp2406
g15
I0
sg16
I01
sbsg17
(lp2407
g1707
asg31
g135
sg33
(iid3_node
node
p2408
(dp2409
g15
I1
sg16
I01
sbsg54
(lp2410
g1589
asbsg54
(lp2411
g1542
asbsg54
(lp2412
g1623
ag1720
asbsg54
(lp2413
g1745
asbsg54
(lp2414
g1555
ag1605
asbsg54
(lp2415
g1516
ag1525
ag1531
ag1547
ag1551
ag1557
ag1561
ag1563
ag1603
ag1606
ag1614
ag1696
ag1697
ag1698
ag1699
ag1723
ag1731
ag1733
ag1758
ag1767
asbsg17
(lp2416
g1510
ag1564
ag1569
ag1586
ag1594
ag1609
ag1612
ag1645
ag1678
ag1687
ag1744
asg31
g101
sg33
(iid3_node
node
p2417
(dp2418
g2
(iid3_node
node
p2419
(dp2420
g2
(iid3_node
node
p2421
(dp2422
g2
(iid3_node
node
p2423
(dp2424
g15
I0
sg16
I01
sbsg17
(lp2425
g1612
asg31
g41
sg33
(iid3_node
node
p2426
(dp2427
g15
I1
sg16
I01
sbsg54
(lp2428
g1744
asbsg17
(lp2429
g1510
ag1586
ag1687
asg31
g68
sg33
(iid3_node
node
p2430
(dp2431
g2
(iid3_node
node
p2432
(dp2433
g15
I0
sg16
I01
sbsg17
(lp2434
g1510
ag1586
asg31
g41
sg33
(iid3_node
node
p2435
(dp2436
g2
(iid3_node
node
p2437
(dp2438
g15
I0
sg16
I01
sbsg17
(lp2439
g1510
asg31
g62
sg33
(iid3_node
node
p2440
(dp2441
g15
I1
sg16
I01
sbsg54
(lp2442
g1586
asbsg54
(lp2443
g1687
asbsg54
(lp2444
g1612
ag1744
asbsg17
(lp2445
g1564
ag1569
ag1594
ag1609
ag1645
ag1678
asg31
g32
sg33
(iid3_node
node
p2446
(dp2447
g2
(iid3_node
node
p2448
(dp2449
g15
I1
sg16
I01
sbsg17
(lp2450
g1564
ag1569
ag1609
ag1678
asg31
g68
sg33
(iid3_node
node
p2451
(dp2452
g2
(iid3_node
node
p2453
(dp2454
g15
I0
sg16
I01
sbsg17
(lp2455
g1564
ag1569
ag1678
asg31
g41
sg33
(iid3_node
node
p2456
(dp2457
g2
(iid3_node
node
p2458
(dp2459
g2
(iid3_node
node
p2460
(dp2461
g15
I0
sg16
I01
sbsg17
(lp2462
g1569
asg31
g135
sg33
(iid3_node
node
p2463
(dp2464
g15
I1
sg16
I01
sbsg54
(lp2465
g1678
asbsg17
(lp2466
g1564
asg31
g116
sg33
(iid3_node
node
p2467
(dp2468
g15
I1
sg16
I01
sbsg54
(lp2469
g1569
ag1678
asbsg54
(lp2470
g1609
asbsg54
(lp2471
g1594
ag1645
asbsg54
(lp2472
g1510
ag1586
ag1612
ag1687
ag1744
asbsg54
(lp2473
g1516
ag1525
ag1531
ag1542
ag1547
ag1551
ag1555
ag1557
ag1561
ag1563
ag1589
ag1603
ag1605
ag1606
ag1614
ag1623
ag1696
ag1697
ag1698
ag1699
ag1707
ag1720
ag1723
ag1731
ag1733
ag1745
ag1758
ag1767
asbsg54
(lp2474
g1511
ag1512
ag1513
ag1514
ag1517
ag1524
ag1527
ag1541
ag1543
ag1544
ag1545
ag1548
ag1549
ag1559
ag1566
ag1572
ag1575
ag1577
ag1580
ag1593
ag1598
ag1604
ag1620
ag1628
ag1629
ag1630
ag1632
ag1639
ag1656
ag1657
ag1663
ag1665
ag1667
ag1668
ag1672
ag1690
ag1695
ag1700
ag1711
ag1714
ag1730
ag1736
ag1737
ag1741
ag1751
ag1754
ag1760
ag1762
ag1765
ag1766
ag1768
asbsg54
(lp2475
g1515
ag1522
ag1533
ag1534
ag1535
ag1536
ag1539
ag1556
ag1558
ag1565
ag1568
ag1574
ag1576
ag1578
ag1583
ag1587
ag1588
ag1590
ag1597
ag1599
ag1600
ag1601
ag1602
ag1607
ag1611
ag1613
ag1615
ag1626
ag1627
ag1637
ag1642
ag1643
ag1648
ag1650
ag1653
ag1654
ag1658
ag1659
ag1662
ag1670
ag1671
ag1674
ag1675
ag1677
ag1680
ag1681
ag1683
ag1688
ag1691
ag1693
ag1702
ag1705
ag1709
ag1710
ag1715
ag1716
ag1717
ag1718
ag1722
ag1726
ag1727
ag1734
ag1735
ag1742
ag1746
ag1748
ag1749
ag1750
ag1753
ag1756
ag1757
ag1759
ag1761
ag1764
ag1771
ag1772
asbsg17
(lp2476
g1509
ag1518
ag1519
ag1520
ag1521
ag1523
ag1526
ag1528
ag1529
ag1530
ag1532
ag1537
ag1538
ag1540
ag1546
ag1550
ag1552
ag1553
ag1554
ag1560
ag1562
ag1567
ag1570
ag1571
ag1573
ag1579
ag1581
ag1582
ag1584
ag1585
ag1591
ag1592
ag1595
ag1596
ag1608
ag1610
ag1616
ag1617
ag1618
ag1619
ag1621
ag1622
ag1624
ag1625
ag1631
ag1633
ag1634
ag1635
ag1636
ag1638
ag1640
ag1641
ag1644
ag1646
ag1647
ag1649
ag1651
ag1652
ag1655
ag1660
ag1661
ag1664
ag1666
ag1669
ag1673
ag1676
ag1679
ag1682
ag1684
ag1685
ag1686
ag1689
ag1692
ag1694
ag1701
ag1703
ag1704
ag1706
ag1708
ag1712
ag1713
ag1719
ag1721
ag1724
ag1725
ag1728
ag1729
ag1732
ag1738
ag1739
ag1740
ag1743
ag1747
ag1752
ag1755
ag1763
ag1769
ag1770
ag1773
asg31
g1029
sg33
(iid3_node
node
p2477
(dp2478
g2
(iid3_node
node
p2479
(dp2480
g2
(iid3_node
node
p2481
(dp2482
g2
(iid3_node
node
p2483
(dp2484
g2
(iid3_node
node
p2485
(dp2486
g2
(iid3_node
node
p2487
(dp2488
g2
(iid3_node
node
p2489
(dp2490
g15
I0
sg16
I01
sbsg17
(lp2491
g1595
ag1660
ag1673
ag1770
asg31
g41
sg33
(iid3_node
node
p2492
(dp2493
g2
(iid3_node
node
p2494
(dp2495
g2
(iid3_node
node
p2496
(dp2497
g2
(iid3_node
node
p2498
(dp2499
g15
I0
sg16
I01
sbsg17
(lp2500
g1673
asg31
g135
sg33
(iid3_node
node
p2501
(dp2502
g15
I1
sg16
I01
sbsg54
(lp2503
g1770
asbsg17
(lp2504
g1595
asg31
g116
sg33
(iid3_node
node
p2505
(dp2506
g15
I0
sg16
I01
sbsg54
(lp2507
g1673
ag1770
asbsg17
(lp2508
g1660
asg31
g57
sg33
(iid3_node
node
p2509
(dp2510
g15
I0
sg16
I01
sbsg54
(lp2511
g1595
ag1673
ag1770
asbsg54
(lp2512
g1669
ag1701
asbsg17
(lp2513
g1582
ag1592
ag1617
ag1652
ag1684
ag1729
ag1738
asg31
g68
sg33
(iid3_node
node
p2514
(dp2515
g2
(iid3_node
node
p2516
(dp2517
g2
(iid3_node
node
p2518
(dp2519
g15
I0
sg16
I01
sbsg17
(lp2520
g1582
ag1617
asg31
g62
sg33
(iid3_node
node
p2521
(dp2522
g15
I1
sg16
I01
sbsg54
(lp2523
g1729
asbsg17
(lp2524
g1592
ag1652
ag1684
ag1738
asg31
g41
sg33
(iid3_node
node
p2525
(dp2526
g2
(iid3_node
node
p2527
(dp2528
g15
I1
sg16
I01
sbsg17
(lp2529
g1652
ag1684
asg31
g57
sg33
(iid3_node
node
p2530
(dp2531
g2
(iid3_node
node
p2532
(dp2533
g15
I1
sg16
I01
sbsg17
(lp2534
g1652
asg31
g116
sg33
(iid3_node
node
p2535
(dp2536
g15
I0
sg16
I01
sbsg54
(lp2537
g1684
asbsg54
(lp2538
g1592
ag1738
asbsg54
(lp2539
g1582
ag1617
ag1729
asbsg54
(lp2540
g1595
ag1660
ag1669
ag1673
ag1701
ag1770
asbsg17
(lp2541
g1530
ag1540
ag1622
ag1651
asg31
g32
sg33
(iid3_node
node
p2542
(dp2543
g2
(iid3_node
node
p2544
(dp2545
g15
I1
sg16
I01
sbsg17
(lp2546
g1530
ag1540
ag1651
asg31
g68
sg33
(iid3_node
node
p2547
(dp2548
g15
I0
sg16
I01
sbsg54
(lp2549
g1622
asbsg54
(lp2550
g1582
ag1592
ag1595
ag1617
ag1652
ag1660
ag1669
ag1673
ag1684
ag1701
ag1729
ag1738
ag1770
asbsg17
(lp2551
g1521
ag1571
ag1631
ag1640
ag1644
ag1679
ag1706
asg31
g101
sg33
(iid3_node
node
p2552
(dp2553
g2
(iid3_node
node
p2554
(dp2555
g15
I0
sg16
I01
sbsg17
(lp2556
g1521
ag1631
ag1679
asg31
g32
sg33
(iid3_node
node
p2557
(dp2558
g2
(iid3_node
node
p2559
(dp2560
g15
I0
sg16
I01
sbsg17
(lp2561
g1631
asg31
g68
sg33
(iid3_node
node
p2562
(dp2563
g15
I1
sg16
I01
sbsg54
(lp2564
g1521
ag1679
asbsg54
(lp2565
g1571
ag1640
ag1644
ag1706
asbsg54
(lp2566
g1530
ag1540
ag1582
ag1592
ag1595
ag1617
ag1622
ag1651
ag1652
ag1660
ag1669
ag1673
ag1684
ag1701
ag1729
ag1738
ag1770
asbsg17
(lp2567
g1509
ag1518
ag1519
ag1520
ag1523
ag1526
ag1528
ag1529
ag1538
ag1550
ag1554
ag1560
ag1573
ag1579
ag1585
ag1619
ag1624
ag1634
ag1635
ag1636
ag1646
ag1647
ag1655
ag1682
ag1686
ag1689
ag1703
ag1704
ag1713
ag1721
ag1728
ag1739
ag1747
ag1755
ag1769
ag1773
asg31
g272
sg33
(iid3_node
node
p2568
(dp2569
g2
(iid3_node
node
p2570
(dp2571
g2
(iid3_node
node
p2572
(dp2573
g2
(iid3_node
node
p2574
(dp2575
g2
(iid3_node
node
p2576
(dp2577
g15
I1
sg16
I01
sbsg17
(lp2578
g1523
ag1538
ag1728
ag1747
ag1769
asg31
g41
sg33
(iid3_node
node
p2579
(dp2580
g2
(iid3_node
node
p2581
(dp2582
g2
(iid3_node
node
p2583
(dp2584
g2
(iid3_node
node
p2585
(dp2586
g15
I0
sg16
I01
sbsg17
(lp2587
g1769
asg31
g135
sg33
(iid3_node
node
p2588
(dp2589
g15
I1
sg16
I01
sbsg54
(lp2590
g1728
asbsg17
(lp2591
g1747
asg31
g57
sg33
(iid3_node
node
p2592
(dp2593
g15
I1
sg16
I01
sbsg54
(lp2594
g1728
ag1769
asbsg17
(lp2595
g1523
ag1538
asg31
g62
sg33
(iid3_node
node
p2596
(dp2597
g2
(iid3_node
node
p2598
(dp2599
g15
I0
sg16
I01
sbsg17
(lp2600
g1538
asg31
g57
sg33
(iid3_node
node
p2601
(dp2602
g15
I1
sg16
I01
sbsg54
(lp2603
g1523
asbsg54
(lp2604
g1728
ag1747
ag1769
asbsg54
(lp2605
g1585
ag1635
asbsg17
(lp2606
g1520
ag1528
ag1560
ag1579
ag1619
ag1636
ag1655
ag1682
ag1704
asg31
g68
sg33
(iid3_node
node
p2607
(dp2608
g2
(iid3_node
node
p2609
(dp2610
g2
(iid3_node
node
p2611
(dp2612
g15
I0
sg16
I01
sbsg17
(lp2613
g1636
ag1704
asg31
g62
sg33
(iid3_node
node
p2614
(dp2615
g2
(iid3_node
node
p2616
(dp2617
g15
I1
sg16
I01
sbsg17
(lp2618
g1636
asg31
g57
sg33
(iid3_node
node
p2619
(dp2620
g15
I0
sg16
I01
sbsg54
(lp2621
g1704
asbsg54
(lp2622
g1560
asbsg17
(lp2623
g1520
ag1528
ag1579
ag1619
ag1655
ag1682
asg31
g41
sg33
(iid3_node
node
p2624
(dp2625
g2
(iid3_node
node
p2626
(dp2627
g2
(iid3_node
node
p2628
(dp2629
g15
I1
sg16
I01
sbsg17
(lp2630
g1682
asg31
g2291
sg33
(iid3_node
node
p2631
(dp2632
g15
I0
sg16
I01
sbsg54
(lp2633
g1619
asbsg17
(lp2634
g1520
ag1528
ag1579
ag1655
asg31
g62
sg33
(iid3_node
node
p2635
(dp2636
g15
I1
sg16
I01
sbsg54
(lp2637
g1619
ag1682
asbsg54
(lp2638
g1560
ag1636
ag1704
asbsg54
(lp2639
g1523
ag1538
ag1585
ag1635
ag1728
ag1747
ag1769
asbsg17
(lp2640
g1519
ag1529
ag1554
ag1624
ag1646
ag1647
ag1686
ag1689
ag1713
ag1721
ag1755
ag1773
asg31
g32
sg33
(iid3_node
node
p2641
(dp2642
g2
(iid3_node
node
p2643
(dp2644
g2
(iid3_node
node
p2645
(dp2646
g15
I0
sg16
I01
sbsg17
(lp2647
g1624
ag1647
ag1686
ag1689
asg31
g41
sg33
(iid3_node
node
p2648
(dp2649
g2
(iid3_node
node
p2650
(dp2651
g2
(iid3_node
node
p2652
(dp2653
g15
I0
sg16
I01
sbsg17
(lp2654
g1686
asg31
g116
sg33
(iid3_node
node
p2655
(dp2656
g15
I1
sg16
I01
sbsg54
(lp2657
g1647
asbsg17
(lp2658
g1624
ag1689
asg31
g57
sg33
(iid3_node
node
p2659
(dp2660
g2
(iid3_node
node
p2661
(dp2662
g15
I0
sg16
I01
sbsg17
(lp2663
g1689
asg31
g1087
sg33
(iid3_node
node
p2664
(dp2665
g15
I1
sg16
I01
sbsg54
(lp2666
g1624
asbsg54
(lp2667
g1647
ag1686
asbsg54
(lp2668
g1529
ag1554
asbsg17
(lp2669
g1519
ag1646
ag1713
ag1721
ag1755
ag1773
asg31
g68
sg33
(iid3_node
node
p2670
(dp2671
g2
(iid3_node
node
p2672
(dp2673
g2
(iid3_node
node
p2674
(dp2675
g15
I0
sg16
I01
sbsg17
(lp2676
g1519
ag1721
asg31
g62
sg33
(iid3_node
node
p2677
(dp2678
g2
(iid3_node
node
p2679
(dp2680
g15
I1
sg16
I01
sbsg17
(lp2681
g1519
asg31
g57
sg33
(iid3_node
node
p2682
(dp2683
g15
I0
sg16
I01
sbsg54
(lp2684
g1721
asbsg54
(lp2685
g1646
ag1773
asbsg17
(lp2686
g1713
ag1755
asg31
g41
sg33
(iid3_node
node
p2687
(dp2688
g15
I1
sg16
I01
sbsg54
(lp2689
g1519
ag1646
ag1721
ag1773
asbsg54
(lp2690
g1529
ag1554
ag1624
ag1647
ag1686
ag1689
asbsg54
(lp2691
g1520
ag1523
ag1528
ag1538
ag1560
ag1579
ag1585
ag1619
ag1635
ag1636
ag1655
ag1682
ag1704
ag1728
ag1747
ag1769
asbsg17
(lp2692
g1509
ag1518
ag1526
ag1550
ag1573
ag1634
ag1703
ag1739
asg31
g101
sg33
(iid3_node
node
p2693
(dp2694
g2
(iid3_node
node
p2695
(dp2696
g2
(iid3_node
node
p2697
(dp2698
g15
I0
sg16
I01
sbsg17
(lp2699
g1509
asg31
g68
sg33
(iid3_node
node
p2700
(dp2701
g15
I1
sg16
I01
sbsg54
(lp2702
g1573
ag1703
asbsg17
(lp2703
g1518
ag1526
ag1550
ag1634
ag1739
asg31
g32
sg33
(iid3_node
node
p2704
(dp2705
g15
I0
sg16
I01
sbsg54
(lp2706
g1509
ag1573
ag1703
asbsg54
(lp2707
g1519
ag1520
ag1523
ag1528
ag1529
ag1538
ag1554
ag1560
ag1579
ag1585
ag1619
ag1624
ag1635
ag1636
ag1646
ag1647
ag1655
ag1682
ag1686
ag1689
ag1704
ag1713
ag1721
ag1728
ag1747
ag1755
ag1769
ag1773
asbsg54
(lp2708
g1521
ag1530
ag1540
ag1571
ag1582
ag1592
ag1595
ag1617
ag1622
ag1631
ag1640
ag1644
ag1651
ag1652
ag1660
ag1669
ag1673
ag1679
ag1684
ag1701
ag1706
ag1729
ag1738
ag1770
asbsg17
(lp2709
g1532
ag1537
ag1546
ag1552
ag1553
ag1562
ag1567
ag1570
ag1581
ag1584
ag1591
ag1596
ag1608
ag1610
ag1616
ag1618
ag1621
ag1625
ag1633
ag1638
ag1641
ag1649
ag1661
ag1664
ag1666
ag1676
ag1685
ag1692
ag1694
ag1708
ag1712
ag1719
ag1724
ag1725
ag1732
ag1740
ag1743
ag1752
ag1763
asg31
g612
sg33
(iid3_node
node
p2710
(dp2711
g2
(iid3_node
node
p2712
(dp2713
g2
(iid3_node
node
p2714
(dp2715
g2
(iid3_node
node
p2716
(dp2717
g2
(iid3_node
node
p2718
(dp2719
g2
(iid3_node
node
p2720
(dp2721
g15
I1
sg16
I01
sbsg17
(lp2722
g1596
ag1685
ag1694
ag1740
asg31
g41
sg33
(iid3_node
node
p2723
(dp2724
g15
I0
sg16
I01
sbsg54
(lp2725
g1633
asbsg17
(lp2726
g1608
ag1638
ag1724
ag1763
asg31
g68
sg33
(iid3_node
node
p2727
(dp2728
g2
(iid3_node
node
p2729
(dp2730
g2
(iid3_node
node
p2731
(dp2732
g15
I0
sg16
I01
sbsg17
(lp2733
g1608
ag1724
asg31
g62
sg33
(iid3_node
node
p2734
(dp2735
g15
I1
sg16
I01
sbsg54
(lp2736
g1763
asbsg17
(lp2737
g1638
asg31
g41
sg33
(iid3_node
node
p2738
(dp2739
g15
I1
sg16
I01
sbsg54
(lp2740
g1608
ag1724
ag1763
asbsg54
(lp2741
g1596
ag1633
ag1685
ag1694
ag1740
asbsg17
(lp2742
g1591
ag1676
asg31
g32
sg33
(iid3_node
node
p2743
(dp2744
g15
I0
sg16
I01
sbsg54
(lp2745
g1596
ag1608
ag1633
ag1638
ag1685
ag1694
ag1724
ag1740
ag1763
asbsg17
(lp2746
g1537
ag1553
ag1567
ag1570
ag1616
ag1625
ag1649
ag1664
ag1692
ag1725
ag1743
ag1752
asg31
g101
sg33
(iid3_node
node
p2747
(dp2748
g2
(iid3_node
node
p2749
(dp2750
g15
I0
sg16
I01
sbsg17
(lp2751
g1537
ag1567
ag1570
ag1616
ag1625
ag1664
ag1692
ag1725
ag1743
ag1752
asg31
g32
sg33
(iid3_node
node
p2752
(dp2753
g2
(iid3_node
node
p2754
(dp2755
g2
(iid3_node
node
p2756
(dp2757
g15
I0
sg16
I01
sbsg17
(lp2758
g1567
ag1570
ag1692
ag1743
ag1752
asg31
g41
sg33
(iid3_node
node
p2759
(dp2760
g2
(iid3_node
node
p2761
(dp2762
g2
(iid3_node
node
p2763
(dp2764
g15
I1
sg16
I01
sbsg17
(lp2765
g1567
asg31
g57
sg33
(iid3_node
node
p2766
(dp2767
g15
I0
sg16
I01
sbsg54
(lp2768
g1570
ag1743
ag1752
asbsg17
(lp2769
g1692
asg31
g62
sg33
(iid3_node
node
p2770
(dp2771
g15
I0
sg16
I01
sbsg54
(lp2772
g1567
ag1570
ag1743
ag1752
asbsg54
(lp2773
g1537
asbsg17
(lp2774
g1616
ag1625
ag1664
ag1725
asg31
g68
sg33
(iid3_node
node
p2775
(dp2776
g15
I0
sg16
I01
sbsg54
(lp2777
g1537
ag1567
ag1570
ag1692
ag1743
ag1752
asbsg54
(lp2778
g1553
ag1649
asbsg54
(lp2779
g1591
ag1596
ag1608
ag1633
ag1638
ag1676
ag1685
ag1694
ag1724
ag1740
ag1763
asbsg17
(lp2780
g1532
ag1546
ag1552
ag1562
ag1581
ag1584
ag1610
ag1618
ag1621
ag1641
ag1661
ag1666
ag1708
ag1712
ag1719
ag1732
asg31
g272
sg33
(iid3_node
node
p2781
(dp2782
g2
(iid3_node
node
p2783
(dp2784
g2
(iid3_node
node
p2785
(dp2786
g2
(iid3_node
node
p2787
(dp2788
g15
I0
sg16
I01
sbsg17
(lp2789
g1712
asg31
g68
sg33
(iid3_node
node
p2790
(dp2791
g15
I1
sg16
I01
sbsg54
(lp2792
g1618
asbsg17
(lp2793
g1532
ag1552
asg31
g32
sg33
(iid3_node
node
p2794
(dp2795
g15
I0
sg16
I01
sbsg54
(lp2796
g1618
ag1712
asbsg17
(lp2797
g1546
ag1562
ag1581
ag1584
ag1610
ag1621
ag1641
ag1661
ag1666
ag1708
ag1719
ag1732
asg31
g101
sg33
(iid3_node
node
p2798
(dp2799
g2
(iid3_node
node
p2800
(dp2801
g2
(iid3_node
node
p2802
(dp2803
g15
I0
sg16
I01
sbsg17
(lp2804
g1610
ag1641
ag1666
ag1732
asg31
g68
sg33
(iid3_node
node
p2805
(dp2806
g2
(iid3_node
node
p2807
(dp2808
g15
I0
sg16
I01
sbsg17
(lp2809
g1610
ag1641
asg31
g41
sg33
(iid3_node
node
p2810
(dp2811
g2
(iid3_node
node
p2812
(dp2813
g15
I1
sg16
I01
sbsg17
(lp2814
g1641
asg31
g57
sg33
(iid3_node
node
p2815
(dp2816
g15
I0
sg16
I01
sbsg54
(lp2817
g1610
asbsg54
(lp2818
g1666
ag1732
asbsg54
(lp2819
g1661
asbsg17
(lp2820
g1546
ag1562
ag1581
ag1584
ag1621
ag1708
ag1719
asg31
g32
sg33
(iid3_node
node
p2821
(dp2822
g2
(iid3_node
node
p2823
(dp2824
g2
(iid3_node
node
p2825
(dp2826
g15
I0
sg16
I01
sbsg17
(lp2827
g1546
ag1621
asg31
g41
sg33
(iid3_node
node
p2828
(dp2829
g2
(iid3_node
node
p2830
(dp2831
g15
I1
sg16
I01
sbsg17
(lp2832
g1621
asg31
g116
sg33
(iid3_node
node
p2833
(dp2834
g15
I0
sg16
I01
sbsg54
(lp2835
g1546
asbsg54
(lp2836
g1581
asbsg17
(lp2837
g1562
ag1584
ag1708
ag1719
asg31
g68
sg33
(iid3_node
node
p2838
(dp2839
g2
(iid3_node
node
p2840
(dp2841
g15
I0
sg16
I01
sbsg17
(lp2842
g1562
ag1708
ag1719
asg31
g41
sg33
(iid3_node
node
p2843
(dp2844
g2
(iid3_node
node
p2845
(dp2846
g15
I1
sg16
I01
sbsg17
(lp2847
g1562
ag1708
asg31
g62
sg33
(iid3_node
node
p2848
(dp2849
g15
I0
sg16
I01
sbsg54
(lp2850
g1719
asbsg54
(lp2851
g1584
asbsg54
(lp2852
g1546
ag1581
ag1621
asbsg54
(lp2853
g1610
ag1641
ag1661
ag1666
ag1732
asbsg54
(lp2854
g1532
ag1552
ag1618
ag1712
asbsg54
(lp2855
g1537
ag1553
ag1567
ag1570
ag1591
ag1596
ag1608
ag1616
ag1625
ag1633
ag1638
ag1649
ag1664
ag1676
ag1685
ag1692
ag1694
ag1724
ag1725
ag1740
ag1743
ag1752
ag1763
asbsg54
(lp2856
g1509
ag1518
ag1519
ag1520
ag1521
ag1523
ag1526
ag1528
ag1529
ag1530
ag1538
ag1540
ag1550
ag1554
ag1560
ag1571
ag1573
ag1579
ag1582
ag1585
ag1592
ag1595
ag1617
ag1619
ag1622
ag1624
ag1631
ag1634
ag1635
ag1636
ag1640
ag1644
ag1646
ag1647
ag1651
ag1652
ag1655
ag1660
ag1669
ag1673
ag1679
ag1682
ag1684
ag1686
ag1689
ag1701
ag1703
ag1704
ag1706
ag1713
ag1721
ag1728
ag1729
ag1738
ag1739
ag1747
ag1755
ag1769
ag1770
ag1773
asbsg54
(lp2857
g1510
ag1511
ag1512
ag1513
ag1514
ag1515
ag1516
ag1517
ag1522
ag1524
ag1525
ag1527
ag1531
ag1533
ag1534
ag1535
ag1536
ag1539
ag1541
ag1542
ag1543
ag1544
ag1545
ag1547
ag1548
ag1549
ag1551
ag1555
ag1556
ag1557
ag1558
ag1559
ag1561
ag1563
ag1564
ag1565
ag1566
ag1568
ag1569
ag1572
ag1574
ag1575
ag1576
ag1577
ag1578
ag1580
ag1583
ag1586
ag1587
ag1588
ag1589
ag1590
ag1593
ag1594
ag1597
ag1598
ag1599
ag1600
ag1601
ag1602
ag1603
ag1604
ag1605
ag1606
ag1607
ag1609
ag1611
ag1612
ag1613
ag1614
ag1615
ag1620
ag1623
ag1626
ag1627
ag1628
ag1629
ag1630
ag1632
ag1637
ag1639
ag1642
ag1643
ag1645
ag1648
ag1650
ag1653
ag1654
ag1656
ag1657
ag1658
ag1659
ag1662
ag1663
ag1665
ag1667
ag1668
ag1670
ag1671
ag1672
ag1674
ag1675
ag1677
ag1678
ag1680
ag1681
ag1683
ag1687
ag1688
ag1690
ag1691
ag1693
ag1695
ag1696
ag1697
ag1698
ag1699
ag1700
ag1702
ag1705
ag1707
ag1709
ag1710
ag1711
ag1714
ag1715
ag1716
ag1717
ag1718
ag1720
ag1722
ag1723
ag1726
ag1727
ag1730
ag1731
ag1733
ag1734
ag1735
ag1736
ag1737
ag1741
ag1742
ag1744
ag1745
ag1746
ag1748
ag1749
ag1750
ag1751
ag1753
ag1754
ag1756
ag1757
ag1758
ag1759
ag1760
ag1761
ag1762
ag1764
ag1765
ag1766
ag1767
ag1768
ag1771
ag1772
asbsg54
(lp2858
g529
ag881
ag882
ag883
ag81
ag73
ag82
ag884
ag530
ag885
ag205
ag531
ag886
ag887
ag532
ag533
ag206
ag534
ag888
ag207
ag535
ag889
ag890
ag536
ag891
ag537
ag892
ag538
ag893
ag539
ag208
ag209
ag210
ag211
ag540
ag894
ag895
ag896
ag897
ag19
ag898
ag899
ag541
ag212
ag900
ag213
ag542
ag214
ag901
ag902
ag903
ag904
ag543
ag215
ag905
ag544
ag906
ag907
ag83
ag216
ag545
ag908
ag909
ag910
ag546
ag911
ag912
ag913
ag914
ag547
ag915
ag548
ag84
ag916
ag85
ag917
ag918
ag919
ag217
ag218
ag920
ag219
ag549
ag550
ag921
ag86
ag922
ag551
ag923
ag220
ag552
ag221
ag924
ag222
ag223
ag925
ag553
ag554
ag555
ag87
ag22
ag926
ag927
ag556
ag928
ag929
ag224
ag74
ag557
ag558
ag930
ag931
ag932
ag88
ag933
ag934
ag935
ag559
ag936
ag937
ag560
ag23
ag938
ag939
ag561
ag940
ag225
ag226
ag562
ag563
ag941
ag564
ag227
ag942
ag228
ag229
ag230
ag943
ag231
ag565
ag566
ag89
ag944
ag945
ag567
ag75
ag76
ag946
ag90
ag232
ag233
ag568
ag569
ag570
ag571
ag947
ag572
ag573
ag77
ag574
ag575
ag948
ag949
ag950
ag576
ag234
ag951
ag952
ag953
ag954
ag235
ag955
ag956
ag91
ag92
ag957
ag958
ag959
ag960
ag961
ag236
ag93
ag577
ag237
ag962
ag963
ag578
ag964
ag965
ag966
ag238
ag239
ag967
ag968
ag969
ag970
ag971
ag579
ag240
ag241
ag94
ag95
ag242
ag243
ag244
ag972
ag973
ag974
ag245
ag975
ag580
ag246
ag581
ag247
ag248
ag249
ag976
ag24
ag977
ag978
ag250
ag979
ag582
ag980
ag981
ag25
ag982
ag983
ag583
ag251
ag96
ag252
ag253
ag584
ag984
ag26
ag985
ag986
ag585
ag586
ag254
ag587
ag987
ag588
ag988
ag989
ag589
ag590
ag255
ag990
ag991
ag591
ag592
ag593
ag992
ag993
ag594
ag994
ag995
ag996
ag997
ag595
ag256
ag596
ag998
ag257
ag999
ag1000
ag258
ag259
ag1001
ag260
ag1002
ag27
ag597
ag1003
ag1004
ag1005
ag1006
ag1007
ag598
ag78
ag1008
ag1009
ag1010
ag1011
ag599
ag600
ag28
ag1012
ag261
ag601
ag262
ag1013
ag1014
ag97
ag263
ag264
ag1015
ag602
ag1016
ag265
ag603
ag29
ag1017
ag604
ag1018
ag266
ag1019
ag1020
ag1021
ag605
ag1022
ag267
ag98
ag268
ag1023
ag99
ag606
ag269
ag1024
ag270
ag607
ag1025
ag271
ag608
ag609
ag1026
ag1027
ag30
ag610
ag100
ag79
ag1028
ag611
asb.